EXPORTS 
	?$TSS0@?1???$?9$$CBVStruct@data@matlab@@@?$TypedIterator@$$CBVStruct@data@matlab@@@data@matlab@@QEBA_NAEBV123@@Z@4HA 	 DATA
	?$TSS0@?1???$?E$$CBVStruct@data@matlab@@@?$TypedIterator@$$CBVStruct@data@matlab@@@data@matlab@@QEAAAEAV123@XZ@4HA 	 DATA
	?$TSS0@?1???$createScalar@C@ArrayFactory@data@matlab@@QEAA?AV?$TypedArray@C@23@C@Z@4HA 	 DATA
	?$TSS0@?1???$createScalar@G@ArrayFactory@data@matlab@@QEAA?AV?$TypedArray@G@23@G@Z@4HA 	 DATA
	?$TSS0@?1???$createScalar@_K@ArrayFactory@data@matlab@@QEAA?AV?$TypedArray@_K@23@_K@Z@4HA 	 DATA
	?$TSS0@?1???$getElement@C@detail@data@matlab@@YAAEACV?$shared_ptr@VReferenceImpl@detail@data@matlab@@@std@@@Z@4HA 	 DATA
	?$TSS0@?1???$getElement@G@detail@data@matlab@@YAAEAGV?$shared_ptr@VReferenceImpl@detail@data@matlab@@@std@@@Z@4HA 	 DATA
	?$TSS0@?1???$getElement@_K@detail@data@matlab@@YAAEA_KV?$shared_ptr@VReferenceImpl@detail@data@matlab@@@std@@@Z@4HA 	 DATA
	?$TSS0@?1???$getRef@$$CBVStruct@data@matlab@@@?$TypedIterator@$$CBVStruct@data@matlab@@@data@matlab@@AEBA?AVStruct@23@XZ@4HA 	 DATA
	?$TSS0@?1???$get_static_exception_object@Ubad_alloc_@exception_detail@mwboost@@@exception_detail@mwboost@@YA?AVexception_ptr@2@XZ@4HA 	 DATA
	?$TSS0@?1???$get_static_exception_object@Ubad_exception_@exception_detail@mwboost@@@exception_detail@mwboost@@YA?AVexception_ptr@2@XZ@4HA 	 DATA
	?$TSS0@?1???$setElement@VArray@data@matlab@@@detail@data@matlab@@YAXPEAVReferenceImpl@123@VArray@23@H@Z@4HA 	 DATA
	?$TSS0@?1???0?$TypedArray@C@data@matlab@@QEAA@$$QEAVArray@23@@Z@4HA 	 DATA
	?$TSS0@?1???0?$TypedArray@G@data@matlab@@QEAA@$$QEAVArray@23@@Z@4HA 	 DATA
	?$TSS0@?1???0?$TypedArray@VStruct@data@matlab@@@data@matlab@@QEAA@$$QEAVArray@23@@Z@4HA 	 DATA
	?$TSS0@?1???0?$TypedArray@_K@data@matlab@@QEAA@$$QEAVArray@23@@Z@4HA 	 DATA
	?$TSS0@?1???0?$TypedArray@_S@data@matlab@@QEAA@$$QEAVArray@23@@Z@4HA 	 DATA
	?$TSS0@?1???0ArrayFactory@data@matlab@@QEAA@XZ@4HA 	 DATA
	?$TSS0@?1???A?$ArrayElementTypedRef@VStruct@data@matlab@@$0A@@data@matlab@@QEAA?AV?$ArrayElementTypedRef@VArray@data@matlab@@$0A@@23@V?$basic_string@DU?$char_traits@D@std@@V?$allocator@D@2@@std@@@Z@4HA 	 DATA
	?$TSS0@?1???A?$TypedArray@C@data@matlab@@QEBA?AV?$ArrayElementTypedRef@C$00@23@_K@Z@4HA 	 DATA
	?$TSS0@?1???A?$TypedArray@G@data@matlab@@QEBA?AV?$ArrayElementTypedRef@G$00@23@_K@Z@4HA 	 DATA
	?$TSS0@?1???A?$TypedArray@VStruct@data@matlab@@@data@matlab@@QEAA?AV?$ArrayElementTypedRef@VStruct@data@matlab@@$0A@@23@_K@Z@4HA 	 DATA
	?$TSS0@?1???A?$TypedArray@VStruct@data@matlab@@@data@matlab@@QEBA?AV?$ArrayElementTypedRef@VStruct@data@matlab@@$00@23@_K@Z@4HA 	 DATA
	?$TSS0@?1???A?$TypedArray@_K@data@matlab@@QEBA?AV?$ArrayElementTypedRef@_K$00@23@_K@Z@4HA 	 DATA
	?$TSS0@?1???AStruct@data@matlab@@QEBA?AVArray@23@V?$basic_string@DU?$char_traits@D@std@@V?$allocator@D@2@@std@@@Z@4HA 	 DATA
	?$TSS0@?1???R<lambda_18bde30140702ba20a566c9dc393b8c0>@@QEBA@PEAVArrayImpl@impl@data@matlab@@@Z@4HA 	 DATA
	?$TSS0@?1???R<lambda_1cc0c119369d3677f6f4efcaefc6d3c2>@@QEBA@PEAVIteratorImpl@detail@data@matlab@@@Z@4HA 	 DATA
	?$TSS0@?1???R<lambda_2615407b98e1f3a14023b76f0dedc381>@@QEBA@PEAVReferenceImpl@detail@data@matlab@@@Z@4HA 	 DATA
	?$TSS0@?1???R<lambda_49bc69670bef5877f460780ec06c4b58>@@QEBA@PEAVArrayImpl@impl@data@matlab@@@Z@4HA 	 DATA
	?$TSS0@?1???R<lambda_9f3a4d0362104a3bede0405fafec76e1>@@QEBA@PEAVNameListImpl@detail@data@matlab@@@Z@4HA 	 DATA
	?$TSS0@?1???R<lambda_a4c5f97d4391fb4c09103a727c16defd>@@QEBA@PEAVArrayFactoryImpl@impl@data@matlab@@@Z@4HA 	 DATA
	?$TSS0@?1??begin@?$TypedArray@VStruct@data@matlab@@@data@matlab@@QEBA?AV?$TypedIterator@$$CBVStruct@data@matlab@@@34@XZ@4HA 	 DATA
	?$TSS0@?1??createCharArray@ArrayFactory@data@matlab@@QEAA?AVCharArray@34@AEBV?$basic_string@DU?$char_traits@D@std@@V?$allocator@D@2@@std@@@Z@4HA 	 DATA
	?$TSS0@?1??createStructArray@ArrayFactory@data@matlab@@QEAA?AVStructArray@34@V?$vector@_KV?$allocator@_K@std@@@std@@V?$vector@V?$basic_string@DU?$char_traits@D@std@@V?$allocator@D@2@@std@@V?$allocator@V?$basic_string@DU?$char_traits@D@std@@V?$allocator@D@2@@std@@@2@@7@@Z@4HA 	 DATA
	?$TSS0@?1??end@?$TypedArray@VStruct@data@matlab@@@data@matlab@@QEBA?AV?$TypedIterator@$$CBVStruct@data@matlab@@@34@XZ@4HA 	 DATA
	?$TSS0@?1??getType@Array@data@matlab@@QEBA?AW4ArrayType@34@XZ@4HA 	 DATA
	?$TSS0@?1??toAscii@CharArray@data@matlab@@QEBA?AV?$basic_string@DU?$char_traits@D@std@@V?$allocator@D@2@@std@@XZ@4HA 	 DATA
	?$TSS0@?4???$resolveFunction@P6AHHHPEA_N@Z@detail@data@matlab@@YAP6AHHHPEA_N@ZW4FunctionType@123@@Z@4HA 	 DATA
	?$TSS0@?4???$resolveFunction@P6AHPEAPEAVArrayFactoryImpl@impl@data@matlab@@@Z@detail@data@matlab@@YAP6AHPEAPEAVArrayFactoryImpl@impl@23@@ZW4FunctionType@123@@Z@4HA 	 DATA
	?$TSS0@?4???$resolveFunction@P6AHPEAVArrayFactoryImpl@impl@data@matlab@@HPEBXPEAPEAVArrayImpl@234@@Z@detail@data@matlab@@YAP6AHPEAVArrayFactoryImpl@impl@23@HPEBXPEAPEAVArrayImpl@523@@ZW4FunctionType@123@@Z@4HA 	 DATA
	?$TSS0@?4???$resolveFunction@P6AHPEAVArrayFactoryImpl@impl@data@matlab@@PEA_K_KPEAVNameListImpl@detail@34@PEAPEAVArrayImpl@234@@Z@detail@data@matlab@@YAP6AHPEAVArrayFactoryImpl@impl@23@PEA_K_KPEAVNameListImpl@123@PEAPEAVArrayImpl@523@@ZW4FunctionType@123@@Z@4HA 	 DATA
	?$TSS0@?4???$resolveFunction@P6AHPEAVArrayFactoryImpl@impl@data@matlab@@PEBD_KPEAPEAVArrayImpl@234@@Z@detail@data@matlab@@YAP6AHPEAVArrayFactoryImpl@impl@23@PEBD_KPEAPEAVArrayImpl@523@@ZW4FunctionType@123@@Z@4HA 	 DATA
	?$TSS0@?4???$resolveFunction@P6AHPEAVArrayImpl@impl@data@matlab@@PEAH@Z@detail@data@matlab@@YAP6AHPEAVArrayImpl@impl@23@PEAH@ZW4FunctionType@123@@Z@4HA 	 DATA
	?$TSS0@?4???$resolveFunction@P6AHPEAVArrayImpl@impl@data@matlab@@PEAPEB_SPEA_K@Z@detail@data@matlab@@YAP6AHPEAVArrayImpl@impl@23@PEAPEB_SPEA_K@ZW4FunctionType@123@@Z@4HA 	 DATA
	?$TSS0@?4???$resolveFunction@P6AHPEAVArrayImpl@impl@data@matlab@@_KPEAPEAVReferenceImpl@detail@34@@Z@detail@data@matlab@@YAP6AHPEAVArrayImpl@impl@23@_KPEAPEAVReferenceImpl@123@@ZW4FunctionType@123@@Z@4HA 	 DATA
	?$TSS0@?4???$resolveFunction@P6AHPEAVReferenceImpl@detail@data@matlab@@PEAPEAX@Z@detail@data@matlab@@YAP6AHPEAVReferenceImpl@123@PEAPEAX@ZW4FunctionType@123@@Z@4HA 	 DATA
	?$TSS0@?4???$resolveFunction@P6AHPEAVReferenceImpl@detail@data@matlab@@PEAVArrayImpl@impl@34@@Z@detail@data@matlab@@YAP6AHPEAVReferenceImpl@123@PEAVArrayImpl@impl@23@@ZW4FunctionType@123@@Z@4HA 	 DATA
	?$TSS0@?4???$resolveFunction@P6AHPEAVReferenceImpl@detail@data@matlab@@PEBD_K@Z@detail@data@matlab@@YAP6AHPEAVReferenceImpl@123@PEBD_K@ZW4FunctionType@123@@Z@4HA 	 DATA
	?$TSS0@?4???$resolveFunction@P6AHPEAVReferenceImpl@detail@data@matlab@@PEBD_KPEAPEAVArrayImpl@impl@34@@Z@detail@data@matlab@@YAP6AHPEAVReferenceImpl@123@PEBD_KPEAPEAVArrayImpl@impl@23@@ZW4FunctionType@123@@Z@4HA 	 DATA
	?$TSS0@?4???$resolveFunction@P6APEAVIteratorImpl@detail@data@matlab@@PEAVArrayImpl@impl@34@_N@Z@detail@data@matlab@@YAP6APEAVIteratorImpl@123@PEAVArrayImpl@impl@23@_N@ZW4FunctionType@123@@Z@4HA 	 DATA
	?$TSS0@?4???$resolveFunction@P6APEAVNameListImpl@detail@data@matlab@@_K@Z@detail@data@matlab@@YAP6APEAVNameListImpl@123@_K@ZW4FunctionType@123@@Z@4HA 	 DATA
	?$TSS0@?4???$resolveFunction@P6AXPEAVArrayFactoryImpl@impl@data@matlab@@@Z@detail@data@matlab@@YAP6AXPEAVArrayFactoryImpl@impl@23@@ZW4FunctionType@123@@Z@4HA 	 DATA
	?$TSS0@?4???$resolveFunction@P6AXPEAVArrayImpl@impl@data@matlab@@@Z@detail@data@matlab@@YAP6AXPEAVArrayImpl@impl@23@@ZW4FunctionType@123@@Z@4HA 	 DATA
	?$TSS0@?4???$resolveFunction@P6AXPEAVIteratorImpl@detail@data@matlab@@@Z@detail@data@matlab@@YAP6AXPEAVIteratorImpl@123@@ZW4FunctionType@123@@Z@4HA 	 DATA
	?$TSS0@?4???$resolveFunction@P6AXPEAVIteratorImpl@detail@data@matlab@@PEAPEAVReferenceImpl@234@@Z@detail@data@matlab@@YAP6AXPEAVIteratorImpl@123@PEAPEAVReferenceImpl@123@@ZW4FunctionType@123@@Z@4HA 	 DATA
	?$TSS0@?4???$resolveFunction@P6AXPEAVNameListImpl@detail@data@matlab@@@Z@detail@data@matlab@@YAP6AXPEAVNameListImpl@123@@ZW4FunctionType@123@@Z@4HA 	 DATA
	?$TSS0@?4???$resolveFunction@P6AXPEAVNameListImpl@detail@data@matlab@@PEBD_K@Z@detail@data@matlab@@YAP6AXPEAVNameListImpl@123@PEBD_K@ZW4FunctionType@123@@Z@4HA 	 DATA
	?$TSS0@?4???$resolveFunction@P6AXPEAVReferenceImpl@detail@data@matlab@@@Z@detail@data@matlab@@YAP6AXPEAVReferenceImpl@123@@ZW4FunctionType@123@@Z@4HA 	 DATA
	?$TSS0@?4???$resolveFunction@P6A_NPEAVArrayImpl@impl@data@matlab@@_NPEAPEAV1234@@Z@detail@data@matlab@@YAP6A_NPEAVArrayImpl@impl@23@_NPEAPEAV4523@@ZW4FunctionType@123@@Z@4HA 	 DATA
	?$TSS0@?4???$resolveFunction@P6A_NPEAVIteratorImpl@detail@data@matlab@@0@Z@detail@data@matlab@@YAP6A_NPEAVIteratorImpl@123@0@ZW4FunctionType@123@@Z@4HA 	 DATA
	?$TSS1@?1???A?$TypedArray@VStruct@data@matlab@@@data@matlab@@QEAA?AV?$ArrayElementTypedRef@VStruct@data@matlab@@$0A@@23@_K@Z@4HA 	 DATA
	?$TSS1@?4??begin@?$TypedArray@VStruct@data@matlab@@@data@matlab@@QEBA?AV?$TypedIterator@$$CBVStruct@data@matlab@@@34@XZ@4HA 	 DATA
	?$TSS1@?4??end@?$TypedArray@VStruct@data@matlab@@@data@matlab@@QEBA?AV?$TypedIterator@$$CBVStruct@data@matlab@@@34@XZ@4HA 	 DATA
	?$TSS2@?5??createStructArray@ArrayFactory@data@matlab@@QEAA?AVStructArray@34@V?$vector@_KV?$allocator@_K@std@@@std@@V?$vector@V?$basic_string@DU?$char_traits@D@std@@V?$allocator@D@2@@std@@V?$allocator@V?$basic_string@DU?$char_traits@D@std@@V?$allocator@D@2@@std@@@2@@7@@Z@4HA 	 DATA
	?$TSS3@?1??createStructArray@ArrayFactory@data@matlab@@QEAA?AVStructArray@34@V?$vector@_KV?$allocator@_K@std@@@std@@V?$vector@V?$basic_string@DU?$char_traits@D@std@@V?$allocator@D@2@@std@@V?$allocator@V?$basic_string@DU?$char_traits@D@std@@V?$allocator@D@2@@std@@@2@@7@@Z@4HA 	 DATA
	??_R0?AU?$DefaultMessageCreator@U?$FlightPlan_@V?$allocator@X@std@@@siam_main@@@ros@@@8 	 DATA
	??_R0?AU?$FlightPlan_@V?$allocator@X@std@@@siam_main@@@8 	 DATA
	??_R0?AU?$checked_array_deleter@E@mwboost@@@8 	 DATA
	??_R0?AU?$wrapexcept@Vbad_function_call@mwboost@@@mwboost@@@8 	 DATA
	??_R0?AU?$wrapexcept@Vlock_error@mwboost@@@mwboost@@@8 	 DATA
	??_R0?AU?$wrapexcept@Vthread_resource_error@mwboost@@@mwboost@@@8 	 DATA
	??_R0?AUbad_alloc_@exception_detail@mwboost@@@8 	 DATA
	??_R0?AUbad_exception_@exception_detail@mwboost@@@8 	 DATA
	??_R0?AV<lambda_18bde30140702ba20a566c9dc393b8c0>@@@8 	 DATA
	??_R0?AV<lambda_1cc0c119369d3677f6f4efcaefc6d3c2>@@@8 	 DATA
	??_R0?AV<lambda_2615407b98e1f3a14023b76f0dedc381>@@@8 	 DATA
	??_R0?AV<lambda_49bc69670bef5877f460780ec06c4b58>@@@8 	 DATA
	??_R0?AV<lambda_9f3a4d0362104a3bede0405fafec76e1>@@@8 	 DATA
	??_R0?AV<lambda_a4c5f97d4391fb4c09103a727c16defd>@@@8 	 DATA
	??_R0?AV?$AbstractMetaObject@V?$MATLABROSMsgInterface@U?$FlightPlan_@V?$allocator@X@std@@@siam_main@@@@@impl@ros1_class_loader@@@8 	 DATA
	??_R0?AV?$AbstractMetaObject@V?$MATLABROSMsgInterface@U?$Point_@V?$allocator@X@std@@@geometry_msgs@@@@@impl@ros1_class_loader@@@8 	 DATA
	??_R0?AV?$AbstractMetaObject@VROSMsgElementInterfaceFactory@@@impl@ros1_class_loader@@@8 	 DATA
	??_R0?AV?$ArrayException@VException@matlab@@$00@detail@data@matlab@@@8 	 DATA
	??_R0?AV?$ArrayException@VException@matlab@@$01@detail@data@matlab@@@8 	 DATA
	??_R0?AV?$ArrayException@VException@matlab@@$02@detail@data@matlab@@@8 	 DATA
	??_R0?AV?$ArrayException@VException@matlab@@$04@detail@data@matlab@@@8 	 DATA
	??_R0?AV?$ArrayException@VException@matlab@@$05@detail@data@matlab@@@8 	 DATA
	??_R0?AV?$ArrayException@VException@matlab@@$06@detail@data@matlab@@@8 	 DATA
	??_R0?AV?$ArrayException@VException@matlab@@$07@detail@data@matlab@@@8 	 DATA
	??_R0?AV?$ArrayException@VException@matlab@@$08@detail@data@matlab@@@8 	 DATA
	??_R0?AV?$ArrayException@VException@matlab@@$09@detail@data@matlab@@@8 	 DATA
	??_R0?AV?$ArrayException@VException@matlab@@$0BA@@detail@data@matlab@@@8 	 DATA
	??_R0?AV?$ArrayException@VException@matlab@@$0BC@@detail@data@matlab@@@8 	 DATA
	??_R0?AV?$ArrayException@VException@matlab@@$0BD@@detail@data@matlab@@@8 	 DATA
	??_R0?AV?$ArrayException@VException@matlab@@$0BE@@detail@data@matlab@@@8 	 DATA
	??_R0?AV?$ArrayException@VException@matlab@@$0BF@@detail@data@matlab@@@8 	 DATA
	??_R0?AV?$ArrayException@VException@matlab@@$0BG@@detail@data@matlab@@@8 	 DATA
	??_R0?AV?$ArrayException@VException@matlab@@$0BH@@detail@data@matlab@@@8 	 DATA
	??_R0?AV?$ArrayException@VException@matlab@@$0BI@@detail@data@matlab@@@8 	 DATA
	??_R0?AV?$ArrayException@VException@matlab@@$0BJ@@detail@data@matlab@@@8 	 DATA
	??_R0?AV?$ArrayException@VException@matlab@@$0BK@@detail@data@matlab@@@8 	 DATA
	??_R0?AV?$ArrayException@VException@matlab@@$0BL@@detail@data@matlab@@@8 	 DATA
	??_R0?AV?$ArrayException@VException@matlab@@$0BM@@detail@data@matlab@@@8 	 DATA
	??_R0?AV?$ArrayException@VException@matlab@@$0BN@@detail@data@matlab@@@8 	 DATA
	??_R0?AV?$ArrayException@VException@matlab@@$0N@@detail@data@matlab@@@8 	 DATA
	??_R0?AV?$ArrayException@VException@matlab@@$0O@@detail@data@matlab@@@8 	 DATA
	??_R0?AV?$ArrayException@VException@matlab@@$0P@@detail@data@matlab@@@8 	 DATA
	??_R0?AV?$MATLABROSMsgInterface@U?$FlightPlan_@V?$allocator@X@std@@@siam_main@@@@@8 	 DATA
	??_R0?AV?$MATLABROSMsgInterface@U?$Point_@V?$allocator@X@std@@@geometry_msgs@@@@@8 	 DATA
	??_R0?AV?$MetaObject@Vsiam_main_FlightPlan_message@@VROSMsgElementInterfaceFactory@@@impl@ros1_class_loader@@@8 	 DATA
	??_R0?AV?$MetaObject@Vsiam_main_msg_FlightPlan_common@@V?$MATLABROSMsgInterface@U?$FlightPlan_@V?$allocator@X@std@@@siam_main@@@@@impl@ros1_class_loader@@@8 	 DATA
	??_R0?AV?$ROSBagWriterImpl@U?$FlightPlan_@V?$allocator@X@std@@@siam_main@@Vsiam_main_msg_FlightPlan_common@@@@@8 	 DATA
	??_R0?AV?$ROSPublisherImpl@U?$FlightPlan_@V?$allocator@X@std@@@siam_main@@Vsiam_main_msg_FlightPlan_common@@@@@8 	 DATA
	??_R0?AV?$ROSSubscriberImpl@U?$FlightPlan_@V?$allocator@X@std@@@siam_main@@V?$shared_ptr@$$CBU?$FlightPlan_@V?$allocator@X@std@@@siam_main@@@mwboost@@Vsiam_main_msg_FlightPlan_common@@@@@8 	 DATA
	??_R0?AV?$SubscriptionCallbackHelperT@AEBV?$shared_ptr@$$CBU?$FlightPlan_@V?$allocator@X@std@@@siam_main@@@mwboost@@X@ros@@@8 	 DATA
	??_R0?AV?$TypedArray@C@data@matlab@@@8 	 DATA
	??_R0?AV?$TypedArray@G@data@matlab@@@8 	 DATA
	??_R0?AV?$TypedArray@VStruct@data@matlab@@@data@matlab@@@8 	 DATA
	??_R0?AV?$TypedArray@_K@data@matlab@@@8 	 DATA
	??_R0?AV?$TypedArray@_S@data@matlab@@@8 	 DATA
	??_R0?AV?$_Ref_count_obj@V?$ROSBagWriterImpl@U?$FlightPlan_@V?$allocator@X@std@@@siam_main@@Vsiam_main_msg_FlightPlan_common@@@@@std@@@8 	 DATA
	??_R0?AV?$_Ref_count_obj@V?$ROSPublisherImpl@U?$FlightPlan_@V?$allocator@X@std@@@siam_main@@Vsiam_main_msg_FlightPlan_common@@@@@std@@@8 	 DATA
	??_R0?AV?$_Ref_count_obj@V?$ROSSubscriberImpl@U?$FlightPlan_@V?$allocator@X@std@@@siam_main@@V?$shared_ptr@$$CBU?$FlightPlan_@V?$allocator@X@std@@@siam_main@@@mwboost@@Vsiam_main_msg_FlightPlan_common@@@@@std@@@8 	 DATA
	??_R0?AV?$_Ref_count_obj@VPublisher@ros@@@std@@@8 	 DATA
	??_R0?AV?$_Ref_count_obj@VSubscriber@ros@@@std@@@8 	 DATA
	??_R0?AV?$_Ref_count_resource@PEAVArrayFactoryImpl@impl@data@matlab@@V<lambda_a4c5f97d4391fb4c09103a727c16defd>@@@std@@@8 	 DATA
	??_R0?AV?$_Ref_count_resource@PEAVArrayImpl@impl@data@matlab@@V<lambda_18bde30140702ba20a566c9dc393b8c0>@@@std@@@8 	 DATA
	??_R0?AV?$_Ref_count_resource@PEAVArrayImpl@impl@data@matlab@@V<lambda_49bc69670bef5877f460780ec06c4b58>@@@std@@@8 	 DATA
	??_R0?AV?$_Ref_count_resource@PEAVIteratorImpl@detail@data@matlab@@V<lambda_1cc0c119369d3677f6f4efcaefc6d3c2>@@@std@@@8 	 DATA
	??_R0?AV?$_Ref_count_resource@PEAVNameListImpl@detail@data@matlab@@V<lambda_9f3a4d0362104a3bede0405fafec76e1>@@@std@@@8 	 DATA
	??_R0?AV?$_Ref_count_resource@PEAVReferenceImpl@detail@data@matlab@@V<lambda_2615407b98e1f3a14023b76f0dedc381>@@@std@@@8 	 DATA
	??_R0?AV?$bind_t@VSerializedMessage@ros@@P6A?AV12@AEBU?$FlightPlan_@V?$allocator@X@std@@@siam_main@@@ZV?$list1@V?$reference_wrapper@U?$FlightPlan_@V?$allocator@X@std@@@siam_main@@@mwboost@@@_bi@mwboost@@@_bi@mwboost@@@8 	 DATA
	??_R0?AV?$bind_t@XV?$mf1@XV?$ROSSubscriberImpl@U?$FlightPlan_@V?$allocator@X@std@@@siam_main@@V?$shared_ptr@$$CBU?$FlightPlan_@V?$allocator@X@std@@@siam_main@@@mwboost@@Vsiam_main_msg_FlightPlan_common@@@@AEBV?$shared_ptr@$$CBU?$FlightPlan_@V?$allocator@X@std@@@siam_main@@@mwboost@@@_mfi@mwboost@@V?$list2@V?$value@PEAV?$ROSSubscriberImpl@U?$FlightPlan_@V?$allocator@X@std@@@siam_main@@V?$shared_ptr@$$CBU?$FlightPlan_@V?$allocator@X@std@@@siam_main@@@mwboost@@Vsiam_main_msg_FlightPlan_common@@@@@_bi@mwboost@@U?$arg@$00@3@@_bi@3@@_bi@mwboost@@@8 	 DATA
	??_R0?AV?$bind_t@XV?$mf1@XVClassLoader@ros1_class_loader@@PEAV?$MATLABROSMsgInterface@U?$Point_@V?$allocator@X@std@@@geometry_msgs@@@@@_mfi@mwboost@@V?$list2@V?$value@PEAVClassLoader@ros1_class_loader@@@_bi@mwboost@@U?$arg@$00@3@@_bi@3@@_bi@mwboost@@@8 	 DATA
	??_R0?AV?$clone_impl@Ubad_alloc_@exception_detail@mwboost@@@exception_detail@mwboost@@@8 	 DATA
	??_R0?AV?$clone_impl@Ubad_exception_@exception_detail@mwboost@@@exception_detail@mwboost@@@8 	 DATA
	??_R0?AV?$function@$$A6AXAEBV?$shared_ptr@$$CBU?$FlightPlan_@V?$allocator@X@std@@@siam_main@@@mwboost@@@Z@mwboost@@@8 	 DATA
	??_R0?AV?$sp_counted_impl_p@V?$clone_impl@Ubad_alloc_@exception_detail@mwboost@@@exception_detail@mwboost@@@detail@mwboost@@@8 	 DATA
	??_R0?AV?$sp_counted_impl_p@V?$clone_impl@Ubad_exception_@exception_detail@mwboost@@@exception_detail@mwboost@@@detail@mwboost@@@8 	 DATA
	??_R0?AV?$sp_counted_impl_pd@PEAEU?$checked_array_deleter@E@mwboost@@@detail@mwboost@@@8 	 DATA
	??_R0?AV?$sp_counted_impl_pd@PEAU?$FlightPlan_@V?$allocator@X@std@@@siam_main@@V?$sp_ms_deleter@U?$FlightPlan_@V?$allocator@X@std@@@siam_main@@@detail@mwboost@@@detail@mwboost@@@8 	 DATA
	??_R0?AV?$sp_counted_impl_pd@PEAV?$MATLABROSMsgInterface@U?$Point_@V?$allocator@X@std@@@geometry_msgs@@@@V?$bind_t@XV?$mf1@XVClassLoader@ros1_class_loader@@PEAV?$MATLABROSMsgInterface@U?$Point_@V?$allocator@X@std@@@geometry_msgs@@@@@_mfi@mwboost@@V?$list2@V?$value@PEAVClassLoader@ros1_class_loader@@@_bi@mwboost@@U?$arg@$00@3@@_bi@3@@_bi@mwboost@@@detail@mwboost@@@8 	 DATA
	??_R0?AV?$sp_counted_impl_pd@PEAV?$SubscriptionCallbackHelperT@AEBV?$shared_ptr@$$CBU?$FlightPlan_@V?$allocator@X@std@@@siam_main@@@mwboost@@X@ros@@V?$sp_ms_deleter@V?$SubscriptionCallbackHelperT@AEBV?$shared_ptr@$$CBU?$FlightPlan_@V?$allocator@X@std@@@siam_main@@@mwboost@@X@ros@@@detail@mwboost@@@detail@mwboost@@@8 	 DATA
	??_R0?AV?$sp_counted_impl_pd@PEAV?$map@V?$basic_string@DU?$char_traits@D@std@@V?$allocator@D@2@@std@@V12@U?$less@V?$basic_string@DU?$char_traits@D@std@@V?$allocator@D@2@@std@@@2@V?$allocator@U?$pair@$$CBV?$basic_string@DU?$char_traits@D@std@@V?$allocator@D@2@@std@@V12@@std@@@2@@std@@V?$sp_ms_deleter@V?$map@V?$basic_string@DU?$char_traits@D@std@@V?$allocator@D@2@@std@@V12@U?$less@V?$basic_string@DU?$char_traits@D@std@@V?$allocator@D@2@@std@@@2@V?$allocator@U?$pair@$$CBV?$basic_string@DU?$char_traits@D@std@@V?$allocator@D@2@@std@@V12@@std@@@2@@std@@@detail@mwboost@@@detail@mwboost@@@8 	 DATA
	??_R0?AV?$sp_ms_deleter@U?$FlightPlan_@V?$allocator@X@std@@@siam_main@@@detail@mwboost@@@8 	 DATA
	??_R0?AV?$sp_ms_deleter@V?$SubscriptionCallbackHelperT@AEBV?$shared_ptr@$$CBU?$FlightPlan_@V?$allocator@X@std@@@siam_main@@@mwboost@@X@ros@@@detail@mwboost@@@8 	 DATA
	??_R0?AV?$sp_ms_deleter@V?$map@V?$basic_string@DU?$char_traits@D@std@@V?$allocator@D@2@@std@@V12@U?$less@V?$basic_string@DU?$char_traits@D@std@@V?$allocator@D@2@@std@@@2@V?$allocator@U?$pair@$$CBV?$basic_string@DU?$char_traits@D@std@@V?$allocator@D@2@@std@@V12@@std@@@2@@std@@@detail@mwboost@@@8 	 DATA
	??_R0?AVAbstractMetaObjectBase@impl@ros1_class_loader@@@8 	 DATA
	??_R0?AVArray@data@matlab@@@8 	 DATA
	??_R0?AVBagException@rosbag@@@8 	 DATA
	??_R0?AVCharArray@data@matlab@@@8 	 DATA
	??_R0?AVClassLoaderException@ros1_class_loader@@@8 	 DATA
	??_R0?AVCreateClassException@ros1_class_loader@@@8 	 DATA
	??_R0?AVException@matlab@@@8 	 DATA
	??_R0?AVException@ros@@@8 	 DATA
	??_R0?AVMATLABPublisherInterface@@@8 	 DATA
	??_R0?AVMATLABROSMsgInterfaceBase@@@8 	 DATA
	??_R0?AVMATLABRosbagWriterInterface@@@8 	 DATA
	??_R0?AVMATLABSubscriberInterface@@@8 	 DATA
	??_R0?AVROSMsgElementInterfaceFactory@@@8 	 DATA
	??_R0?AVStructArray@data@matlab@@@8 	 DATA
	??_R0?AVSubscriptionCallbackHelper@ros@@@8 	 DATA
	??_R0?AV_Ref_count_base@std@@@8 	 DATA
	??_R0?AVbad_alloc@std@@@8 	 DATA
	??_R0?AVbad_exception@std@@@8 	 DATA
	??_R0?AVbad_function_call@mwboost@@@8 	 DATA
	??_R0?AVclone_base@exception_detail@mwboost@@@8 	 DATA
	??_R0?AVerror_category@system@mwboost@@@8 	 DATA
	??_R0?AVexception@mwboost@@@8 	 DATA
	??_R0?AVexception@std@@@8 	 DATA
	??_R0?AVgeneric_error_category@detail@system@mwboost@@@8 	 DATA
	??_R0?AVinvalid_argument@std@@@8 	 DATA
	??_R0?AVlock_error@mwboost@@@8 	 DATA
	??_R0?AVlogic_error@std@@@8 	 DATA
	??_R0?AVruntime_error@std@@@8 	 DATA
	??_R0?AVsiam_main_FlightPlan_message@@@8 	 DATA
	??_R0?AVsiam_main_msg_FlightPlan_common@@@8 	 DATA
	??_R0?AVsp_counted_base@detail@mwboost@@@8 	 DATA
	??_R0?AVsystem_error@system@mwboost@@@8 	 DATA
	??_R0?AVthread_exception@mwboost@@@8 	 DATA
	??_R0?AVthread_resource_error@mwboost@@@8 	 DATA
	??_R0PEAV?$MATLABROSMsgInterface@U?$Point_@V?$allocator@X@std@@@geometry_msgs@@@@@8 	 DATA
	?__rosconsole_define_location__loc@?6??deserialize@?$SubscriptionCallbackHelperT@AEBV?$shared_ptr@$$CBU?$FlightPlan_@V?$allocator@X@std@@@siam_main@@@mwboost@@X@ros@@UEAA?AV?$shared_ptr@$$CBX@mwboost@@AEBUSubscriptionCallbackHelperDeserializeParams@3@@Z@4ULogLocation@console@3@A 	 DATA
	?__rosconsole_define_location__loc@?N@???$publish@U?$FlightPlan_@V?$allocator@X@std@@@siam_main@@@Publisher@ros@@QEBAXAEBV?$shared_ptr@U?$FlightPlan_@V?$allocator@X@std@@@siam_main@@@mwboost@@@Z@4ULogLocation@console@2@A 	 DATA
	?destroyFcn@?1???R<lambda_9f3a4d0362104a3bede0405fafec76e1>@@QEBA@PEAVNameListImpl@detail@data@matlab@@@Z@4Q6AX0@ZEA 	 DATA
	?destroyFcn@?1???R<lambda_a4c5f97d4391fb4c09103a727c16defd>@@QEBA@PEAVArrayFactoryImpl@impl@data@matlab@@@Z@4Q6AX0@ZEA 	 DATA
	?e@?$exception_ptr_static_exception_object@Ubad_alloc_@exception_detail@mwboost@@@exception_detail@mwboost@@2Vexception_ptr@3@B 	 DATA
	?e@?$exception_ptr_static_exception_object@Ubad_exception_@exception_detail@mwboost@@@exception_detail@mwboost@@2Vexception_ptr@3@B 	 DATA
	?ep@?1???$get_static_exception_object@Ubad_alloc_@exception_detail@mwboost@@@exception_detail@mwboost@@YA?AVexception_ptr@2@XZ@4V32@A 	 DATA
	?ep@?1???$get_static_exception_object@Ubad_exception_@exception_detail@mwboost@@@exception_detail@mwboost@@YA?AVexception_ptr@2@XZ@4V32@A 	 DATA
	?fcn2@?1???R<lambda_18bde30140702ba20a566c9dc393b8c0>@@QEBA@PEAVArrayImpl@impl@data@matlab@@@Z@4Q6AX0@ZEA 	 DATA
	?fcn2@?1???R<lambda_1cc0c119369d3677f6f4efcaefc6d3c2>@@QEBA@PEAVIteratorImpl@detail@data@matlab@@@Z@4Q6AX0@ZEA 	 DATA
	?fcn2@?1???R<lambda_2615407b98e1f3a14023b76f0dedc381>@@QEBA@PEAVReferenceImpl@detail@data@matlab@@@Z@4Q6AX0@ZEA 	 DATA
	?fcn2@?1???R<lambda_49bc69670bef5877f460780ec06c4b58>@@QEBA@PEAVArrayImpl@impl@data@matlab@@@Z@4Q6AX0@ZEA 	 DATA
	?fcn2@?1??createStructArray@ArrayFactory@data@matlab@@QEAA?AVStructArray@34@V?$vector@_KV?$allocator@_K@std@@@std@@V?$vector@V?$basic_string@DU?$char_traits@D@std@@V?$allocator@D@2@@std@@V?$allocator@V?$basic_string@DU?$char_traits@D@std@@V?$allocator@D@2@@std@@@2@@7@@Z@4Q6AHPEAVArrayFactoryImpl@impl@34@PEA_K_KPEAVNameListImpl@detail@34@PEAPEAVArrayImpl@impl@34@@ZEA 	 DATA
	?fcn2@?4??begin@?$TypedArray@VStruct@data@matlab@@@data@matlab@@QEBA?AV?$TypedIterator@$$CBVStruct@data@matlab@@@34@XZ@4Q6APEAVIteratorImpl@detail@34@PEAVArrayImpl@impl@34@_N@ZEA 	 DATA
	?fcn2@?4??end@?$TypedArray@VStruct@data@matlab@@@data@matlab@@QEBA?AV?$TypedIterator@$$CBVStruct@data@matlab@@@34@XZ@4Q6APEAVIteratorImpl@detail@34@PEAVArrayImpl@impl@34@_N@ZEA 	 DATA
	?fcn3@?1???A?$TypedArray@VStruct@data@matlab@@@data@matlab@@QEAA?AV?$ArrayElementTypedRef@VStruct@data@matlab@@$0A@@23@_K@Z@4Q6AHPEAVArrayImpl@impl@23@0PEAPEAVReferenceImpl@detail@23@@ZEA 	 DATA
	?fcn3@?1??createStructArray@ArrayFactory@data@matlab@@QEAA?AVStructArray@34@V?$vector@_KV?$allocator@_K@std@@@std@@V?$vector@V?$basic_string@DU?$char_traits@D@std@@V?$allocator@D@2@@std@@V?$allocator@V?$basic_string@DU?$char_traits@D@std@@V?$allocator@D@2@@std@@@2@@7@@Z@4Q6APEAVNameListImpl@detail@34@_K@ZEA 	 DATA
	?fcn@?1???$?9$$CBVStruct@data@matlab@@@?$TypedIterator@$$CBVStruct@data@matlab@@@data@matlab@@QEBA_NAEBV123@@Z@4Q6A_NPEAVIteratorImpl@detail@23@1@ZEA 	 DATA
	?fcn@?1???$?E$$CBVStruct@data@matlab@@@?$TypedIterator@$$CBVStruct@data@matlab@@@data@matlab@@QEAAAEAV123@XZ@4Q6AXPEAVIteratorImpl@detail@23@@ZEA 	 DATA
	?fcn@?1???$createScalar@C@ArrayFactory@data@matlab@@QEAA?AV?$TypedArray@C@23@C@Z@4Q6AHPEAVArrayFactoryImpl@impl@23@HPEBXPEAPEAVArrayImpl@623@@ZEA 	 DATA
	?fcn@?1???$createScalar@G@ArrayFactory@data@matlab@@QEAA?AV?$TypedArray@G@23@G@Z@4Q6AHPEAVArrayFactoryImpl@impl@23@HPEBXPEAPEAVArrayImpl@623@@ZEA 	 DATA
	?fcn@?1???$createScalar@_K@ArrayFactory@data@matlab@@QEAA?AV?$TypedArray@_K@23@_K@Z@4Q6AHPEAVArrayFactoryImpl@impl@23@HPEBXPEAPEAVArrayImpl@623@@ZEA 	 DATA
	?fcn@?1???$getElement@C@detail@data@matlab@@YAAEACV?$shared_ptr@VReferenceImpl@detail@data@matlab@@@std@@@Z@4Q6AHPEAVReferenceImpl@123@PEAPEAX@ZEA 	 DATA
	?fcn@?1???$getElement@G@detail@data@matlab@@YAAEAGV?$shared_ptr@VReferenceImpl@detail@data@matlab@@@std@@@Z@4Q6AHPEAVReferenceImpl@123@PEAPEAX@ZEA 	 DATA
	?fcn@?1???$getElement@_K@detail@data@matlab@@YAAEA_KV?$shared_ptr@VReferenceImpl@detail@data@matlab@@@std@@@Z@4Q6AHPEAVReferenceImpl@123@PEAPEAX@ZEA 	 DATA
	?fcn@?1???$getRef@$$CBVStruct@data@matlab@@@?$TypedIterator@$$CBVStruct@data@matlab@@@data@matlab@@AEBA?AVStruct@23@XZ@4Q6AXPEAVIteratorImpl@detail@23@PEAPEAVReferenceImpl@623@@ZEA 	 DATA
	?fcn@?1???$setElement@VArray@data@matlab@@@detail@data@matlab@@YAXPEAVReferenceImpl@123@VArray@23@H@Z@4Q6AH0PEAVArrayImpl@impl@23@@ZEA 	 DATA
	?fcn@?1???0?$TypedArray@C@data@matlab@@QEAA@$$QEAVArray@23@@Z@4Q6AHHHPEA_N@ZEA 	 DATA
	?fcn@?1???0?$TypedArray@G@data@matlab@@QEAA@$$QEAVArray@23@@Z@4Q6AHHHPEA_N@ZEA 	 DATA
	?fcn@?1???0?$TypedArray@VStruct@data@matlab@@@data@matlab@@QEAA@$$QEAVArray@23@@Z@4Q6AHHHPEA_N@ZEA 	 DATA
	?fcn@?1???0?$TypedArray@_K@data@matlab@@QEAA@$$QEAVArray@23@@Z@4Q6AHHHPEA_N@ZEA 	 DATA
	?fcn@?1???0?$TypedArray@_S@data@matlab@@QEAA@$$QEAVArray@23@@Z@4Q6AHHHPEA_N@ZEA 	 DATA
	?fcn@?1???0ArrayFactory@data@matlab@@QEAA@XZ@4Q6AHPEAPEAVArrayFactoryImpl@impl@23@@ZEA 	 DATA
	?fcn@?1???A?$ArrayElementTypedRef@VStruct@data@matlab@@$0A@@data@matlab@@QEAA?AV?$ArrayElementTypedRef@VArray@data@matlab@@$0A@@23@V?$basic_string@DU?$char_traits@D@std@@V?$allocator@D@2@@std@@@Z@4Q6AHPEAVReferenceImpl@detail@23@PEBD_K@ZEA 	 DATA
	?fcn@?1???A?$TypedArray@C@data@matlab@@QEBA?AV?$ArrayElementTypedRef@C$00@23@_K@Z@4Q6AHPEAVArrayImpl@impl@23@0PEAPEAVReferenceImpl@detail@23@@ZEA 	 DATA
	?fcn@?1???A?$TypedArray@G@data@matlab@@QEBA?AV?$ArrayElementTypedRef@G$00@23@_K@Z@4Q6AHPEAVArrayImpl@impl@23@0PEAPEAVReferenceImpl@detail@23@@ZEA 	 DATA
	?fcn@?1???A?$TypedArray@VStruct@data@matlab@@@data@matlab@@QEAA?AV?$ArrayElementTypedRef@VStruct@data@matlab@@$0A@@23@_K@Z@4Q6A_NPEAVArrayImpl@impl@23@_NPEAPEAV5623@@ZEA 	 DATA
	?fcn@?1???A?$TypedArray@VStruct@data@matlab@@@data@matlab@@QEBA?AV?$ArrayElementTypedRef@VStruct@data@matlab@@$00@23@_K@Z@4Q6AHPEAVArrayImpl@impl@23@0PEAPEAVReferenceImpl@detail@23@@ZEA 	 DATA
	?fcn@?1???A?$TypedArray@_K@data@matlab@@QEBA?AV?$ArrayElementTypedRef@_K$00@23@_K@Z@4Q6AHPEAVArrayImpl@impl@23@0PEAPEAVReferenceImpl@detail@23@@ZEA 	 DATA
	?fcn@?1???AStruct@data@matlab@@QEBA?AVArray@23@V?$basic_string@DU?$char_traits@D@std@@V?$allocator@D@2@@std@@@Z@4Q6AHPEAVReferenceImpl@detail@23@PEBD_KPEAPEAVArrayImpl@impl@23@@ZEA 	 DATA
	?fcn@?1??begin@?$TypedArray@VStruct@data@matlab@@@data@matlab@@QEBA?AV?$TypedIterator@$$CBVStruct@data@matlab@@@34@XZ@4Q6APEAVIteratorImpl@detail@34@PEAVArrayImpl@impl@34@_N@ZEA 	 DATA
	?fcn@?1??createCharArray@ArrayFactory@data@matlab@@QEAA?AVCharArray@34@AEBV?$basic_string@DU?$char_traits@D@std@@V?$allocator@D@2@@std@@@Z@4Q6AHPEAVArrayFactoryImpl@impl@34@PEBD_KPEAPEAVArrayImpl@934@@ZEA 	 DATA
	?fcn@?1??end@?$TypedArray@VStruct@data@matlab@@@data@matlab@@QEBA?AV?$TypedIterator@$$CBVStruct@data@matlab@@@34@XZ@4Q6APEAVIteratorImpl@detail@34@PEAVArrayImpl@impl@34@_N@ZEA 	 DATA
	?fcn@?1??getType@Array@data@matlab@@QEBA?AW4ArrayType@34@XZ@4Q6AHPEAVArrayImpl@impl@34@PEAH@ZEA 	 DATA
	?fcn@?1??toAscii@CharArray@data@matlab@@QEBA?AV?$basic_string@DU?$char_traits@D@std@@V?$allocator@D@2@@std@@XZ@4Q6AHPEAVArrayImpl@impl@34@PEAPEB_SPEA_K@ZEA 	 DATA
	?fcn@?5??createStructArray@ArrayFactory@data@matlab@@QEAA?AVStructArray@34@V?$vector@_KV?$allocator@_K@std@@@std@@V?$vector@V?$basic_string@DU?$char_traits@D@std@@V?$allocator@D@2@@std@@V?$allocator@V?$basic_string@DU?$char_traits@D@std@@V?$allocator@D@2@@std@@@2@@7@@Z@4Q6AXPEAVNameListImpl@detail@34@PEBD_K@ZEA 	 DATA
	?hit@?N@???$publish@U?$FlightPlan_@V?$allocator@X@std@@@siam_main@@@Publisher@ros@@QEBAXAEBV?$shared_ptr@U?$FlightPlan_@V?$allocator@X@std@@@siam_main@@@mwboost@@@Z@4_NA 	 DATA
	?minRelease@?4???$resolveFunction@P6AHHHPEA_N@Z@detail@data@matlab@@YAP6AHHHPEA_N@ZW4FunctionType@123@@Z@4V?$vector@U?$pair@W4FunctionType@detail@data@matlab@@V?$basic_string@DU?$char_traits@D@std@@V?$allocator@D@2@@std@@@std@@V?$allocator@U?$pair@W4FunctionType@detail@data@matlab@@V?$basic_string@DU?$char_traits@D@std@@V?$allocator@D@2@@std@@@std@@@2@@std@@B 	 DATA
	?minRelease@?4???$resolveFunction@P6AHPEAPEAVArrayFactoryImpl@impl@data@matlab@@@Z@detail@data@matlab@@YAP6AHPEAPEAVArrayFactoryImpl@impl@23@@ZW4FunctionType@123@@Z@4V?$vector@U?$pair@W4FunctionType@detail@data@matlab@@V?$basic_string@DU?$char_traits@D@std@@V?$allocator@D@2@@std@@@std@@V?$allocator@U?$pair@W4FunctionType@detail@data@matlab@@V?$basic_string@DU?$char_traits@D@std@@V?$allocator@D@2@@std@@@std@@@2@@std@@B 	 DATA
	?minRelease@?4???$resolveFunction@P6AHPEAVArrayFactoryImpl@impl@data@matlab@@HPEBXPEAPEAVArrayImpl@234@@Z@detail@data@matlab@@YAP6AHPEAVArrayFactoryImpl@impl@23@HPEBXPEAPEAVArrayImpl@523@@ZW4FunctionType@123@@Z@4V?$vector@U?$pair@W4FunctionType@detail@data@matlab@@V?$basic_string@DU?$char_traits@D@std@@V?$allocator@D@2@@std@@@std@@V?$allocator@U?$pair@W4FunctionType@detail@data@matlab@@V?$basic_string@DU?$char_traits@D@std@@V?$allocator@D@2@@std@@@std@@@2@@std@@B 	 DATA
	?minRelease@?4???$resolveFunction@P6AHPEAVArrayFactoryImpl@impl@data@matlab@@PEA_K_KPEAVNameListImpl@detail@34@PEAPEAVArrayImpl@234@@Z@detail@data@matlab@@YAP6AHPEAVArrayFactoryImpl@impl@23@PEA_K_KPEAVNameListImpl@123@PEAPEAVArrayImpl@523@@ZW4FunctionType@123@@Z@4V?$vector@U?$pair@W4FunctionType@detail@data@matlab@@V?$basic_string@DU?$char_traits@D@std@@V?$allocator@D@2@@std@@@std@@V?$allocator@U?$pair@W4FunctionType@detail@data@matlab@@V?$basic_string@DU?$char_traits@D@std@@V?$allocator@D@2@@std@@@std@@@2@@std@@B 	 DATA
	?minRelease@?4???$resolveFunction@P6AHPEAVArrayFactoryImpl@impl@data@matlab@@PEBD_KPEAPEAVArrayImpl@234@@Z@detail@data@matlab@@YAP6AHPEAVArrayFactoryImpl@impl@23@PEBD_KPEAPEAVArrayImpl@523@@ZW4FunctionType@123@@Z@4V?$vector@U?$pair@W4FunctionType@detail@data@matlab@@V?$basic_string@DU?$char_traits@D@std@@V?$allocator@D@2@@std@@@std@@V?$allocator@U?$pair@W4FunctionType@detail@data@matlab@@V?$basic_string@DU?$char_traits@D@std@@V?$allocator@D@2@@std@@@std@@@2@@std@@B 	 DATA
	?minRelease@?4???$resolveFunction@P6AHPEAVArrayImpl@impl@data@matlab@@PEAH@Z@detail@data@matlab@@YAP6AHPEAVArrayImpl@impl@23@PEAH@ZW4FunctionType@123@@Z@4V?$vector@U?$pair@W4FunctionType@detail@data@matlab@@V?$basic_string@DU?$char_traits@D@std@@V?$allocator@D@2@@std@@@std@@V?$allocator@U?$pair@W4FunctionType@detail@data@matlab@@V?$basic_string@DU?$char_traits@D@std@@V?$allocator@D@2@@std@@@std@@@2@@std@@B 	 DATA
	?minRelease@?4???$resolveFunction@P6AHPEAVArrayImpl@impl@data@matlab@@PEAPEB_SPEA_K@Z@detail@data@matlab@@YAP6AHPEAVArrayImpl@impl@23@PEAPEB_SPEA_K@ZW4FunctionType@123@@Z@4V?$vector@U?$pair@W4FunctionType@detail@data@matlab@@V?$basic_string@DU?$char_traits@D@std@@V?$allocator@D@2@@std@@@std@@V?$allocator@U?$pair@W4FunctionType@detail@data@matlab@@V?$basic_string@DU?$char_traits@D@std@@V?$allocator@D@2@@std@@@std@@@2@@std@@B 	 DATA
	?minRelease@?4???$resolveFunction@P6AHPEAVArrayImpl@impl@data@matlab@@_KPEAPEAVReferenceImpl@detail@34@@Z@detail@data@matlab@@YAP6AHPEAVArrayImpl@impl@23@_KPEAPEAVReferenceImpl@123@@ZW4FunctionType@123@@Z@4V?$vector@U?$pair@W4FunctionType@detail@data@matlab@@V?$basic_string@DU?$char_traits@D@std@@V?$allocator@D@2@@std@@@std@@V?$allocator@U?$pair@W4FunctionType@detail@data@matlab@@V?$basic_string@DU?$char_traits@D@std@@V?$allocator@D@2@@std@@@std@@@2@@std@@B 	 DATA
	?minRelease@?4???$resolveFunction@P6AHPEAVReferenceImpl@detail@data@matlab@@PEAPEAX@Z@detail@data@matlab@@YAP6AHPEAVReferenceImpl@123@PEAPEAX@ZW4FunctionType@123@@Z@4V?$vector@U?$pair@W4FunctionType@detail@data@matlab@@V?$basic_string@DU?$char_traits@D@std@@V?$allocator@D@2@@std@@@std@@V?$allocator@U?$pair@W4FunctionType@detail@data@matlab@@V?$basic_string@DU?$char_traits@D@std@@V?$allocator@D@2@@std@@@std@@@2@@std@@B 	 DATA
	?minRelease@?4???$resolveFunction@P6AHPEAVReferenceImpl@detail@data@matlab@@PEAVArrayImpl@impl@34@@Z@detail@data@matlab@@YAP6AHPEAVReferenceImpl@123@PEAVArrayImpl@impl@23@@ZW4FunctionType@123@@Z@4V?$vector@U?$pair@W4FunctionType@detail@data@matlab@@V?$basic_string@DU?$char_traits@D@std@@V?$allocator@D@2@@std@@@std@@V?$allocator@U?$pair@W4FunctionType@detail@data@matlab@@V?$basic_string@DU?$char_traits@D@std@@V?$allocator@D@2@@std@@@std@@@2@@std@@B 	 DATA
	?minRelease@?4???$resolveFunction@P6AHPEAVReferenceImpl@detail@data@matlab@@PEBD_K@Z@detail@data@matlab@@YAP6AHPEAVReferenceImpl@123@PEBD_K@ZW4FunctionType@123@@Z@4V?$vector@U?$pair@W4FunctionType@detail@data@matlab@@V?$basic_string@DU?$char_traits@D@std@@V?$allocator@D@2@@std@@@std@@V?$allocator@U?$pair@W4FunctionType@detail@data@matlab@@V?$basic_string@DU?$char_traits@D@std@@V?$allocator@D@2@@std@@@std@@@2@@std@@B 	 DATA
	?minRelease@?4???$resolveFunction@P6AHPEAVReferenceImpl@detail@data@matlab@@PEBD_KPEAPEAVArrayImpl@impl@34@@Z@detail@data@matlab@@YAP6AHPEAVReferenceImpl@123@PEBD_KPEAPEAVArrayImpl@impl@23@@ZW4FunctionType@123@@Z@4V?$vector@U?$pair@W4FunctionType@detail@data@matlab@@V?$basic_string@DU?$char_traits@D@std@@V?$allocator@D@2@@std@@@std@@V?$allocator@U?$pair@W4FunctionType@detail@data@matlab@@V?$basic_string@DU?$char_traits@D@std@@V?$allocator@D@2@@std@@@std@@@2@@std@@B 	 DATA
	?minRelease@?4???$resolveFunction@P6APEAVIteratorImpl@detail@data@matlab@@PEAVArrayImpl@impl@34@_N@Z@detail@data@matlab@@YAP6APEAVIteratorImpl@123@PEAVArrayImpl@impl@23@_N@ZW4FunctionType@123@@Z@4V?$vector@U?$pair@W4FunctionType@detail@data@matlab@@V?$basic_string@DU?$char_traits@D@std@@V?$allocator@D@2@@std@@@std@@V?$allocator@U?$pair@W4FunctionType@detail@data@matlab@@V?$basic_string@DU?$char_traits@D@std@@V?$allocator@D@2@@std@@@std@@@2@@std@@B 	 DATA
	?minRelease@?4???$resolveFunction@P6APEAVNameListImpl@detail@data@matlab@@_K@Z@detail@data@matlab@@YAP6APEAVNameListImpl@123@_K@ZW4FunctionType@123@@Z@4V?$vector@U?$pair@W4FunctionType@detail@data@matlab@@V?$basic_string@DU?$char_traits@D@std@@V?$allocator@D@2@@std@@@std@@V?$allocator@U?$pair@W4FunctionType@detail@data@matlab@@V?$basic_string@DU?$char_traits@D@std@@V?$allocator@D@2@@std@@@std@@@2@@std@@B 	 DATA
	?minRelease@?4???$resolveFunction@P6AXPEAVArrayFactoryImpl@impl@data@matlab@@@Z@detail@data@matlab@@YAP6AXPEAVArrayFactoryImpl@impl@23@@ZW4FunctionType@123@@Z@4V?$vector@U?$pair@W4FunctionType@detail@data@matlab@@V?$basic_string@DU?$char_traits@D@std@@V?$allocator@D@2@@std@@@std@@V?$allocator@U?$pair@W4FunctionType@detail@data@matlab@@V?$basic_string@DU?$char_traits@D@std@@V?$allocator@D@2@@std@@@std@@@2@@std@@B 	 DATA
	?minRelease@?4???$resolveFunction@P6AXPEAVArrayImpl@impl@data@matlab@@@Z@detail@data@matlab@@YAP6AXPEAVArrayImpl@impl@23@@ZW4FunctionType@123@@Z@4V?$vector@U?$pair@W4FunctionType@detail@data@matlab@@V?$basic_string@DU?$char_traits@D@std@@V?$allocator@D@2@@std@@@std@@V?$allocator@U?$pair@W4FunctionType@detail@data@matlab@@V?$basic_string@DU?$char_traits@D@std@@V?$allocator@D@2@@std@@@std@@@2@@std@@B 	 DATA
	?minRelease@?4???$resolveFunction@P6AXPEAVIteratorImpl@detail@data@matlab@@@Z@detail@data@matlab@@YAP6AXPEAVIteratorImpl@123@@ZW4FunctionType@123@@Z@4V?$vector@U?$pair@W4FunctionType@detail@data@matlab@@V?$basic_string@DU?$char_traits@D@std@@V?$allocator@D@2@@std@@@std@@V?$allocator@U?$pair@W4FunctionType@detail@data@matlab@@V?$basic_string@DU?$char_traits@D@std@@V?$allocator@D@2@@std@@@std@@@2@@std@@B 	 DATA
	?minRelease@?4???$resolveFunction@P6AXPEAVIteratorImpl@detail@data@matlab@@PEAPEAVReferenceImpl@234@@Z@detail@data@matlab@@YAP6AXPEAVIteratorImpl@123@PEAPEAVReferenceImpl@123@@ZW4FunctionType@123@@Z@4V?$vector@U?$pair@W4FunctionType@detail@data@matlab@@V?$basic_string@DU?$char_traits@D@std@@V?$allocator@D@2@@std@@@std@@V?$allocator@U?$pair@W4FunctionType@detail@data@matlab@@V?$basic_string@DU?$char_traits@D@std@@V?$allocator@D@2@@std@@@std@@@2@@std@@B 	 DATA
	?minRelease@?4???$resolveFunction@P6AXPEAVNameListImpl@detail@data@matlab@@@Z@detail@data@matlab@@YAP6AXPEAVNameListImpl@123@@ZW4FunctionType@123@@Z@4V?$vector@U?$pair@W4FunctionType@detail@data@matlab@@V?$basic_string@DU?$char_traits@D@std@@V?$allocator@D@2@@std@@@std@@V?$allocator@U?$pair@W4FunctionType@detail@data@matlab@@V?$basic_string@DU?$char_traits@D@std@@V?$allocator@D@2@@std@@@std@@@2@@std@@B 	 DATA
	?minRelease@?4???$resolveFunction@P6AXPEAVNameListImpl@detail@data@matlab@@PEBD_K@Z@detail@data@matlab@@YAP6AXPEAVNameListImpl@123@PEBD_K@ZW4FunctionType@123@@Z@4V?$vector@U?$pair@W4FunctionType@detail@data@matlab@@V?$basic_string@DU?$char_traits@D@std@@V?$allocator@D@2@@std@@@std@@V?$allocator@U?$pair@W4FunctionType@detail@data@matlab@@V?$basic_string@DU?$char_traits@D@std@@V?$allocator@D@2@@std@@@std@@@2@@std@@B 	 DATA
	?minRelease@?4???$resolveFunction@P6AXPEAVReferenceImpl@detail@data@matlab@@@Z@detail@data@matlab@@YAP6AXPEAVReferenceImpl@123@@ZW4FunctionType@123@@Z@4V?$vector@U?$pair@W4FunctionType@detail@data@matlab@@V?$basic_string@DU?$char_traits@D@std@@V?$allocator@D@2@@std@@@std@@V?$allocator@U?$pair@W4FunctionType@detail@data@matlab@@V?$basic_string@DU?$char_traits@D@std@@V?$allocator@D@2@@std@@@std@@@2@@std@@B 	 DATA
	?minRelease@?4???$resolveFunction@P6A_NPEAVArrayImpl@impl@data@matlab@@_NPEAPEAV1234@@Z@detail@data@matlab@@YAP6A_NPEAVArrayImpl@impl@23@_NPEAPEAV4523@@ZW4FunctionType@123@@Z@4V?$vector@U?$pair@W4FunctionType@detail@data@matlab@@V?$basic_string@DU?$char_traits@D@std@@V?$allocator@D@2@@std@@@std@@V?$allocator@U?$pair@W4FunctionType@detail@data@matlab@@V?$basic_string@DU?$char_traits@D@std@@V?$allocator@D@2@@std@@@std@@@2@@std@@B 	 DATA
	?minRelease@?4???$resolveFunction@P6A_NPEAVIteratorImpl@detail@data@matlab@@0@Z@detail@data@matlab@@YAP6A_NPEAVIteratorImpl@123@0@ZW4FunctionType@123@@Z@4V?$vector@U?$pair@W4FunctionType@detail@data@matlab@@V?$basic_string@DU?$char_traits@D@std@@V?$allocator@D@2@@std@@@std@@V?$allocator@U?$pair@W4FunctionType@detail@data@matlab@@V?$basic_string@DU?$char_traits@D@std@@V?$allocator@D@2@@std@@@std@@@2@@std@@B 	 DATA
	??$?0$$V@?$_Ref_count_obj@V?$ROSBagWriterImpl@U?$FlightPlan_@V?$allocator@X@std@@@siam_main@@Vsiam_main_msg_FlightPlan_common@@@@@std@@QEAA@XZ
	??$?0PEAEU?$checked_array_deleter@E@mwboost@@@shared_count@detail@mwboost@@QEAA@PEAEU?$checked_array_deleter@E@2@@Z
	??$?0PEAU?$FlightPlan_@V?$allocator@X@std@@@siam_main@@V?$sp_ms_deleter@U?$FlightPlan_@V?$allocator@X@std@@@siam_main@@@detail@mwboost@@@shared_count@detail@mwboost@@QEAA@PEAU?$FlightPlan_@V?$allocator@X@std@@@siam_main@@U?$sp_inplace_tag@V?$sp_ms_deleter@U?$FlightPlan_@V?$allocator@X@std@@@siam_main@@@detail@mwboost@@@12@@Z
	??$?0PEAV?$MATLABROSMsgInterface@U?$Point_@V?$allocator@X@std@@@geometry_msgs@@@@V?$bind_t@XV?$mf1@XVClassLoader@ros1_class_loader@@PEAV?$MATLABROSMsgInterface@U?$Point_@V?$allocator@X@std@@@geometry_msgs@@@@@_mfi@mwboost@@V?$list2@V?$value@PEAVClassLoader@ros1_class_loader@@@_bi@mwboost@@U?$arg@$00@3@@_bi@3@@_bi@mwboost@@@shared_count@detail@mwboost@@QEAA@PEAV?$MATLABROSMsgInterface@U?$Point_@V?$allocator@X@std@@@geometry_msgs@@@@V?$bind_t@XV?$mf1@XVClassLoader@ros1_class_loader@@PEAV?$MATLABROSMsgInterface@U?$Point_@V?$allocator@X@std@@@geometry_msgs@@@@@_mfi@mwboost@@V?$list2@V?$value@PEAVClassLoader@ros1_class_loader@@@_bi@mwboost@@U?$arg@$00@3@@_bi@3@@_bi@2@@Z
	??$?0PEAV?$SubscriptionCallbackHelperT@AEBV?$shared_ptr@$$CBU?$FlightPlan_@V?$allocator@X@std@@@siam_main@@@mwboost@@X@ros@@V?$sp_ms_deleter@V?$SubscriptionCallbackHelperT@AEBV?$shared_ptr@$$CBU?$FlightPlan_@V?$allocator@X@std@@@siam_main@@@mwboost@@X@ros@@@detail@mwboost@@@shared_count@detail@mwboost@@QEAA@PEAV?$SubscriptionCallbackHelperT@AEBV?$shared_ptr@$$CBU?$FlightPlan_@V?$allocator@X@std@@@siam_main@@@mwboost@@X@ros@@U?$sp_inplace_tag@V?$sp_ms_deleter@V?$SubscriptionCallbackHelperT@AEBV?$shared_ptr@$$CBU?$FlightPlan_@V?$allocator@X@std@@@siam_main@@@mwboost@@X@ros@@@detail@mwboost@@@12@@Z
	??$?0PEAV?$map@V?$basic_string@DU?$char_traits@D@std@@V?$allocator@D@2@@std@@V12@U?$less@V?$basic_string@DU?$char_traits@D@std@@V?$allocator@D@2@@std@@@2@V?$allocator@U?$pair@$$CBV?$basic_string@DU?$char_traits@D@std@@V?$allocator@D@2@@std@@V12@@std@@@2@@std@@V?$sp_ms_deleter@V?$map@V?$basic_string@DU?$char_traits@D@std@@V?$allocator@D@2@@std@@V12@U?$less@V?$basic_string@DU?$char_traits@D@std@@V?$allocator@D@2@@std@@@2@V?$allocator@U?$pair@$$CBV?$basic_string@DU?$char_traits@D@std@@V?$allocator@D@2@@std@@V12@@std@@@2@@std@@@detail@mwboost@@@shared_count@detail@mwboost@@QEAA@PEAV?$map@V?$basic_string@DU?$char_traits@D@std@@V?$allocator@D@2@@std@@V12@U?$less@V?$basic_string@DU?$char_traits@D@std@@V?$allocator@D@2@@std@@@2@V?$allocator@U?$pair@$$CBV?$basic_string@DU?$char_traits@D@std@@V?$allocator@D@2@@std@@V12@@std@@@2@@std@@U?$sp_inplace_tag@V?$sp_ms_deleter@V?$map@V?$basic_string@DU?$char_traits@D@std@@V?$allocator@D@2@@std@@V12@U?$less@V?$basic_string@DU?$char_traits@D@std@@V?$allocator@D@2@@std@@@2@V?$allocator@U?$pair@$$CBV?$basic_string@DU?$char_traits@D@std@@V?$allocator@D@2@@std@@V12@@std@@@2@@std@@@detail@mwboost@@@12@@Z
	??$?0U?$FlightPlan_@V?$allocator@X@std@@@siam_main@@@?$shared_ptr@$$CBU?$FlightPlan_@V?$allocator@X@std@@@siam_main@@@mwboost@@QEAA@AEBV?$shared_ptr@U?$FlightPlan_@V?$allocator@X@std@@@siam_main@@@1@Usp_empty@detail@1@@Z
	??$?0U?$FlightPlan_@V?$allocator@X@std@@@siam_main@@@?$shared_ptr@$$CBX@mwboost@@QEAA@AEBV?$shared_ptr@U?$FlightPlan_@V?$allocator@X@std@@@siam_main@@@1@Usp_empty@detail@1@@Z
	??$?0V?$MATLABROSMsgInterface@U?$Point_@V?$allocator@X@std@@@geometry_msgs@@@@@?$shared_ptr@VMATLABROSMsgInterfaceBase@@@mwboost@@QEAA@AEBV?$shared_ptr@V?$MATLABROSMsgInterface@U?$Point_@V?$allocator@X@std@@@geometry_msgs@@@@@1@Usp_empty@detail@1@@Z
	??$?0V?$allocator@D@std@@$$V@?$_Compressed_pair@V?$allocator@D@std@@V?$_String_val@U?$_Simple_types@D@std@@@2@$00@std@@QEAA@U_One_then_variadic_args_t@1@$$QEAV?$allocator@D@1@@Z
	??$?0V?$allocator@U?$_Tree_node@U?$pair@$$CBV?$basic_string@DU?$char_traits@D@std@@V?$allocator@D@2@@std@@V12@@std@@PEAX@std@@@std@@@?$_Tree@V?$_Tmap_traits@V?$basic_string@DU?$char_traits@D@std@@V?$allocator@D@2@@std@@V12@U?$less@V?$basic_string@DU?$char_traits@D@std@@V?$allocator@D@2@@std@@@2@V?$allocator@U?$pair@$$CBV?$basic_string@DU?$char_traits@D@std@@V?$allocator@D@2@@std@@V12@@std@@@2@$0A@@std@@@std@@QEAA@AEBV01@$$QEAV?$allocator@U?$_Tree_node@U?$pair@$$CBV?$basic_string@DU?$char_traits@D@std@@V?$allocator@D@2@@std@@V12@@std@@PEAX@std@@@1@@Z
	??$?0V?$allocator@U?$_Tree_node@U?$pair@$$CBV?$basic_string@DU?$char_traits@D@std@@V?$allocator@D@2@@std@@V12@@std@@PEAX@std@@@std@@X@?$_Tree_comp_alloc@V?$_Tmap_traits@V?$basic_string@DU?$char_traits@D@std@@V?$allocator@D@2@@std@@V12@U?$less@V?$basic_string@DU?$char_traits@D@std@@V?$allocator@D@2@@std@@@2@V?$allocator@U?$pair@$$CBV?$basic_string@DU?$char_traits@D@std@@V?$allocator@D@2@@std@@V12@@std@@@2@$0A@@std@@@std@@QEAA@AEBU?$less@V?$basic_string@DU?$char_traits@D@std@@V?$allocator@D@2@@std@@@1@$$QEAV?$allocator@U?$_Tree_node@U?$pair@$$CBV?$basic_string@DU?$char_traits@D@std@@V?$allocator@D@2@@std@@V12@@std@@PEAX@std@@@1@@Z
	??$?0V?$clone_impl@Ubad_alloc_@exception_detail@mwboost@@@exception_detail@mwboost@@@?$shared_ptr@$$CBVclone_base@exception_detail@mwboost@@@mwboost@@QEAA@PEAV?$clone_impl@Ubad_alloc_@exception_detail@mwboost@@@exception_detail@1@@Z
	??$?0V?$clone_impl@Ubad_alloc_@exception_detail@mwboost@@@exception_detail@mwboost@@@shared_count@detail@mwboost@@QEAA@PEAV?$clone_impl@Ubad_alloc_@exception_detail@mwboost@@@exception_detail@2@@Z
	??$?0V?$clone_impl@Ubad_exception_@exception_detail@mwboost@@@exception_detail@mwboost@@@?$shared_ptr@$$CBVclone_base@exception_detail@mwboost@@@mwboost@@QEAA@PEAV?$clone_impl@Ubad_exception_@exception_detail@mwboost@@@exception_detail@1@@Z
	??$?0V?$clone_impl@Ubad_exception_@exception_detail@mwboost@@@exception_detail@mwboost@@@shared_count@detail@mwboost@@QEAA@PEAV?$clone_impl@Ubad_exception_@exception_detail@mwboost@@@exception_detail@2@@Z
	??$?0V?$function@$$A6AXAEBV?$shared_ptr@$$CBU?$FlightPlan_@V?$allocator@X@std@@@siam_main@@@mwboost@@@Z@mwboost@@@?$function@$$A6AXV?$shared_ptr@$$CBU?$FlightPlan_@V?$allocator@X@std@@@siam_main@@@mwboost@@@Z@mwboost@@QEAA@V?$function@$$A6AXAEBV?$shared_ptr@$$CBU?$FlightPlan_@V?$allocator@X@std@@@siam_main@@@mwboost@@@Z@1@H@Z
	??$?0W4FunctionType@detail@data@matlab@@AEAY06$$CBD$0A@@?$pair@W4FunctionType@detail@data@matlab@@V?$basic_string@DU?$char_traits@D@std@@V?$allocator@D@2@@std@@@std@@QEAA@$$QEAW4FunctionType@detail@data@matlab@@AEAY06$$CBD@Z
	??$?4U?$FlightPlan_@V?$allocator@X@std@@@siam_main@@@?$shared_ptr@$$CBX@mwboost@@QEAAAEAV01@AEBV?$shared_ptr@U?$FlightPlan_@V?$allocator@X@std@@@siam_main@@@1@@Z
	??$?4V?$MATLABROSMsgInterface@U?$Point_@V?$allocator@X@std@@@geometry_msgs@@@@@?$shared_ptr@VMATLABROSMsgInterfaceBase@@@mwboost@@QEAAAEAV01@AEBV?$shared_ptr@V?$MATLABROSMsgInterface@U?$Point_@V?$allocator@X@std@@@geometry_msgs@@@@@1@@Z
	??$?4V?$SubscriptionCallbackHelperT@AEBV?$shared_ptr@$$CBU?$FlightPlan_@V?$allocator@X@std@@@siam_main@@@mwboost@@X@ros@@@?$shared_ptr@VSubscriptionCallbackHelper@ros@@@mwboost@@QEAAAEAV01@$$QEAV?$shared_ptr@V?$SubscriptionCallbackHelperT@AEBV?$shared_ptr@$$CBU?$FlightPlan_@V?$allocator@X@std@@@siam_main@@@mwboost@@X@ros@@@1@@Z
	??$?9$$CBVStruct@data@matlab@@@?$TypedIterator@$$CBVStruct@data@matlab@@@data@matlab@@QEBA_NAEBV012@@Z
	??$?E$$CBVStruct@data@matlab@@@?$TypedIterator@$$CBVStruct@data@matlab@@@data@matlab@@QEAAAEAV012@XZ
	??$?HDU?$char_traits@D@std@@V?$allocator@D@1@@std@@YA?AV?$basic_string@DU?$char_traits@D@std@@V?$allocator@D@2@@0@$$QEAV10@0@Z
	??$?HDU?$char_traits@D@std@@V?$allocator@D@1@@std@@YA?AV?$basic_string@DU?$char_traits@D@std@@V?$allocator@D@2@@0@$$QEAV10@QEBD@Z
	??$?HDU?$char_traits@D@std@@V?$allocator@D@1@@std@@YA?AV?$basic_string@DU?$char_traits@D@std@@V?$allocator@D@2@@0@QEBDAEBV10@@Z
	??$?M$$CBV?$basic_string@DU?$char_traits@D@std@@V?$allocator@D@2@@std@@V01@@std@@YA_NAEBU?$pair@$$CBV?$basic_string@DU?$char_traits@D@std@@V?$allocator@D@2@@std@@V12@@0@0@Z
	??$?MV?$_Tmap_traits@V?$basic_string@DU?$char_traits@D@std@@V?$allocator@D@2@@std@@V12@U?$less@V?$basic_string@DU?$char_traits@D@std@@V?$allocator@D@2@@std@@@2@V?$allocator@U?$pair@$$CBV?$basic_string@DU?$char_traits@D@std@@V?$allocator@D@2@@std@@V12@@std@@@2@$0A@@std@@@std@@YA_NAEBV?$_Tree@V?$_Tmap_traits@V?$basic_string@DU?$char_traits@D@std@@V?$allocator@D@2@@std@@V12@U?$less@V?$basic_string@DU?$char_traits@D@std@@V?$allocator@D@2@@std@@@2@V?$allocator@U?$pair@$$CBV?$basic_string@DU?$char_traits@D@std@@V?$allocator@D@2@@std@@V12@@std@@@2@$0A@@std@@@0@0@Z
	??$?RAEAPEAV?$MATLABROSMsgInterface@U?$Point_@V?$allocator@X@std@@@geometry_msgs@@@@@?$bind_t@XV?$mf1@XVClassLoader@ros1_class_loader@@PEAV?$MATLABROSMsgInterface@U?$Point_@V?$allocator@X@std@@@geometry_msgs@@@@@_mfi@mwboost@@V?$list2@V?$value@PEAVClassLoader@ros1_class_loader@@@_bi@mwboost@@U?$arg@$00@3@@_bi@3@@_bi@mwboost@@QEAAXAEAPEAV?$MATLABROSMsgInterface@U?$Point_@V?$allocator@X@std@@@geometry_msgs@@@@@Z
	??$?RAEBV?$shared_ptr@$$CBU?$FlightPlan_@V?$allocator@X@std@@@siam_main@@@mwboost@@@?$bind_t@XV?$mf1@XV?$ROSSubscriberImpl@U?$FlightPlan_@V?$allocator@X@std@@@siam_main@@V?$shared_ptr@$$CBU?$FlightPlan_@V?$allocator@X@std@@@siam_main@@@mwboost@@Vsiam_main_msg_FlightPlan_common@@@@AEBV?$shared_ptr@$$CBU?$FlightPlan_@V?$allocator@X@std@@@siam_main@@@mwboost@@@_mfi@mwboost@@V?$list2@V?$value@PEAV?$ROSSubscriberImpl@U?$FlightPlan_@V?$allocator@X@std@@@siam_main@@V?$shared_ptr@$$CBU?$FlightPlan_@V?$allocator@X@std@@@siam_main@@@mwboost@@Vsiam_main_msg_FlightPlan_common@@@@@_bi@mwboost@@U?$arg@$00@3@@_bi@3@@_bi@mwboost@@QEAAXAEBV?$shared_ptr@$$CBU?$FlightPlan_@V?$allocator@X@std@@@siam_main@@@2@@Z
	??$_Allocate_manually_vector_aligned@U_Default_allocate_traits@std@@@std@@YAPEAX_K@Z
	??$_Assign_range@PEAU?$Point_@V?$allocator@X@std@@@geometry_msgs@@@?$vector@U?$Point_@V?$allocator@X@std@@@geometry_msgs@@V?$allocator@U?$Point_@V?$allocator@X@std@@@geometry_msgs@@@std@@@std@@AEAAXPEAU?$Point_@V?$allocator@X@std@@@geometry_msgs@@0Uforward_iterator_tag@1@@Z
	??$_Buynode@AEAU?$pair@$$CBV?$basic_string@DU?$char_traits@D@std@@V?$allocator@D@2@@std@@V12@@std@@@?$_Tree_comp_alloc@V?$_Tmap_traits@V?$basic_string@DU?$char_traits@D@std@@V?$allocator@D@2@@std@@V12@U?$less@V?$basic_string@DU?$char_traits@D@std@@V?$allocator@D@2@@std@@@2@V?$allocator@U?$pair@$$CBV?$basic_string@DU?$char_traits@D@std@@V?$allocator@D@2@@std@@V12@@std@@@2@$0A@@std@@@std@@QEAAPEAU?$_Tree_node@U?$pair@$$CBV?$basic_string@DU?$char_traits@D@std@@V?$allocator@D@2@@std@@V12@@std@@PEAX@1@AEAU?$pair@$$CBV?$basic_string@DU?$char_traits@D@std@@V?$allocator@D@2@@std@@V12@@1@@Z
	??$_Buynode@AEBUIndexEntry@rosbag@@@?$_Tree_comp_alloc@V?$_Tset_traits@UIndexEntry@rosbag@@U?$less@UIndexEntry@rosbag@@@std@@V?$allocator@UIndexEntry@rosbag@@@4@$00@std@@@std@@QEAAPEAU?$_Tree_node@UIndexEntry@rosbag@@PEAX@1@AEBUIndexEntry@rosbag@@@Z
	??$_Buynode@AEBUpiecewise_construct_t@std@@V?$tuple@$$QEAV?$basic_string@DU?$char_traits@D@std@@V?$allocator@D@2@@std@@@2@V?$tuple@$$V@2@@?$_Tree_comp_alloc@V?$_Tmap_traits@V?$basic_string@DU?$char_traits@D@std@@V?$allocator@D@2@@std@@V12@U?$less@V?$basic_string@DU?$char_traits@D@std@@V?$allocator@D@2@@std@@@2@V?$allocator@U?$pair@$$CBV?$basic_string@DU?$char_traits@D@std@@V?$allocator@D@2@@std@@V12@@std@@@2@$0A@@std@@@std@@QEAAPEAU?$_Tree_node@U?$pair@$$CBV?$basic_string@DU?$char_traits@D@std@@V?$allocator@D@2@@std@@V12@@std@@PEAX@1@AEBUpiecewise_construct_t@1@$$QEAV?$tuple@$$QEAV?$basic_string@DU?$char_traits@D@std@@V?$allocator@D@2@@std@@@1@$$QEAV?$tuple@$$V@1@@Z
	??$_Buynode@AEBUpiecewise_construct_t@std@@V?$tuple@AEBI@2@V?$tuple@$$V@2@@?$_Tree_comp_alloc@V?$_Tmap_traits@IIU?$less@I@std@@V?$allocator@U?$pair@$$CBII@std@@@2@$0A@@std@@@std@@QEAAPEAU?$_Tree_node@U?$pair@$$CBII@std@@PEAX@1@AEBUpiecewise_construct_t@1@$$QEAV?$tuple@AEBI@1@$$QEAV?$tuple@$$V@1@@Z
	??$_Buynode@AEBUpiecewise_construct_t@std@@V?$tuple@AEBI@2@V?$tuple@$$V@2@@?$_Tree_comp_alloc@V?$_Tmap_traits@IPEAUConnectionInfo@rosbag@@U?$less@I@std@@V?$allocator@U?$pair@$$CBIPEAUConnectionInfo@rosbag@@@std@@@4@$0A@@std@@@std@@QEAAPEAU?$_Tree_node@U?$pair@$$CBIPEAUConnectionInfo@rosbag@@@std@@PEAX@1@AEBUpiecewise_construct_t@1@$$QEAV?$tuple@AEBI@1@$$QEAV?$tuple@$$V@1@@Z
	??$_Buynode@AEBUpiecewise_construct_t@std@@V?$tuple@AEBI@2@V?$tuple@$$V@2@@?$_Tree_comp_alloc@V?$_Tmap_traits@IV?$multiset@UIndexEntry@rosbag@@U?$less@UIndexEntry@rosbag@@@std@@V?$allocator@UIndexEntry@rosbag@@@4@@std@@U?$less@I@2@V?$allocator@U?$pair@$$CBIV?$multiset@UIndexEntry@rosbag@@U?$less@UIndexEntry@rosbag@@@std@@V?$allocator@UIndexEntry@rosbag@@@4@@std@@@std@@@2@$0A@@std@@@std@@QEAAPEAU?$_Tree_node@U?$pair@$$CBIV?$multiset@UIndexEntry@rosbag@@U?$less@UIndexEntry@rosbag@@@std@@V?$allocator@UIndexEntry@rosbag@@@4@@std@@@std@@PEAX@1@AEBUpiecewise_construct_t@1@$$QEAV?$tuple@AEBI@1@$$QEAV?$tuple@$$V@1@@Z
	??$_Buynode@AEBUpiecewise_construct_t@std@@V?$tuple@AEBV?$basic_string@DU?$char_traits@D@std@@V?$allocator@D@2@@std@@@2@V?$tuple@$$V@2@@?$_Tree_comp_alloc@V?$_Tmap_traits@V?$basic_string@DU?$char_traits@D@std@@V?$allocator@D@2@@std@@IU?$less@V?$basic_string@DU?$char_traits@D@std@@V?$allocator@D@2@@std@@@2@V?$allocator@U?$pair@$$CBV?$basic_string@DU?$char_traits@D@std@@V?$allocator@D@2@@std@@I@std@@@2@$0A@@std@@@std@@QEAAPEAU?$_Tree_node@U?$pair@$$CBV?$basic_string@DU?$char_traits@D@std@@V?$allocator@D@2@@std@@I@std@@PEAX@1@AEBUpiecewise_construct_t@1@$$QEAV?$tuple@AEBV?$basic_string@DU?$char_traits@D@std@@V?$allocator@D@2@@std@@@1@$$QEAV?$tuple@$$V@1@@Z
	??$_Buynode@AEBUpiecewise_construct_t@std@@V?$tuple@AEBV?$basic_string@DU?$char_traits@D@std@@V?$allocator@D@2@@std@@@2@V?$tuple@$$V@2@@?$_Tree_comp_alloc@V?$_Tmap_traits@V?$basic_string@DU?$char_traits@D@std@@V?$allocator@D@2@@std@@PEAVAbstractMetaObjectBase@impl@ros1_class_loader@@U?$less@V?$basic_string@DU?$char_traits@D@std@@V?$allocator@D@2@@std@@@2@V?$allocator@U?$pair@$$CBV?$basic_string@DU?$char_traits@D@std@@V?$allocator@D@2@@std@@PEAVAbstractMetaObjectBase@impl@ros1_class_loader@@@std@@@2@$0A@@std@@@std@@QEAAPEAU?$_Tree_node@U?$pair@$$CBV?$basic_string@DU?$char_traits@D@std@@V?$allocator@D@2@@std@@PEAVAbstractMetaObjectBase@impl@ros1_class_loader@@@std@@PEAX@1@AEBUpiecewise_construct_t@1@$$QEAV?$tuple@AEBV?$basic_string@DU?$char_traits@D@std@@V?$allocator@D@2@@std@@@1@$$QEAV?$tuple@$$V@1@@Z
	??$_Buynode@AEBUpiecewise_construct_t@std@@V?$tuple@AEBV?$basic_string@DU?$char_traits@D@std@@V?$allocator@D@2@@std@@@2@V?$tuple@$$V@2@@?$_Tree_comp_alloc@V?$_Tmap_traits@V?$basic_string@DU?$char_traits@D@std@@V?$allocator@D@2@@std@@V12@U?$less@V?$basic_string@DU?$char_traits@D@std@@V?$allocator@D@2@@std@@@2@V?$allocator@U?$pair@$$CBV?$basic_string@DU?$char_traits@D@std@@V?$allocator@D@2@@std@@V12@@std@@@2@$0A@@std@@@std@@QEAAPEAU?$_Tree_node@U?$pair@$$CBV?$basic_string@DU?$char_traits@D@std@@V?$allocator@D@2@@std@@V12@@std@@PEAX@1@AEBUpiecewise_construct_t@1@$$QEAV?$tuple@AEBV?$basic_string@DU?$char_traits@D@std@@V?$allocator@D@2@@std@@@1@$$QEAV?$tuple@$$V@1@@Z
	??$_Buynode@AEBUpiecewise_construct_t@std@@V?$tuple@AEBV?$basic_string@DU?$char_traits@D@std@@V?$allocator@D@2@@std@@@2@V?$tuple@$$V@2@@?$_Tree_comp_alloc@V?$_Tmap_traits@V?$basic_string@DU?$char_traits@D@std@@V?$allocator@D@2@@std@@V?$shared_ptr@VMATLABROSMsgInterfaceBase@@@mwboost@@U?$less@V?$basic_string@DU?$char_traits@D@std@@V?$allocator@D@2@@std@@@2@V?$allocator@U?$pair@$$CBV?$basic_string@DU?$char_traits@D@std@@V?$allocator@D@2@@std@@V?$shared_ptr@VMATLABROSMsgInterfaceBase@@@mwboost@@@std@@@2@$0A@@std@@@std@@QEAAPEAU?$_Tree_node@U?$pair@$$CBV?$basic_string@DU?$char_traits@D@std@@V?$allocator@D@2@@std@@V?$shared_ptr@VMATLABROSMsgInterfaceBase@@@mwboost@@@std@@PEAX@1@AEBUpiecewise_construct_t@1@$$QEAV?$tuple@AEBV?$basic_string@DU?$char_traits@D@std@@V?$allocator@D@2@@std@@@1@$$QEAV?$tuple@$$V@1@@Z
	??$_Buynode@AEBUpiecewise_construct_t@std@@V?$tuple@AEBV?$map@V?$basic_string@DU?$char_traits@D@std@@V?$allocator@D@2@@std@@V12@U?$less@V?$basic_string@DU?$char_traits@D@std@@V?$allocator@D@2@@std@@@2@V?$allocator@U?$pair@$$CBV?$basic_string@DU?$char_traits@D@std@@V?$allocator@D@2@@std@@V12@@std@@@2@@std@@@2@V?$tuple@$$V@2@@?$_Tree_comp_alloc@V?$_Tmap_traits@V?$map@V?$basic_string@DU?$char_traits@D@std@@V?$allocator@D@2@@std@@V12@U?$less@V?$basic_string@DU?$char_traits@D@std@@V?$allocator@D@2@@std@@@2@V?$allocator@U?$pair@$$CBV?$basic_string@DU?$char_traits@D@std@@V?$allocator@D@2@@std@@V12@@std@@@2@@std@@IU?$less@V?$map@V?$basic_string@DU?$char_traits@D@std@@V?$allocator@D@2@@std@@V12@U?$less@V?$basic_string@DU?$char_traits@D@std@@V?$allocator@D@2@@std@@@2@V?$allocator@U?$pair@$$CBV?$basic_string@DU?$char_traits@D@std@@V?$allocator@D@2@@std@@V12@@std@@@2@@std@@@2@V?$allocator@U?$pair@$$CBV?$map@V?$basic_string@DU?$char_traits@D@std@@V?$allocator@D@2@@std@@V12@U?$less@V?$basic_string@DU?$char_traits@D@std@@V?$allocator@D@2@@std@@@2@V?$allocator@U?$pair@$$CBV?$basic_string@DU?$char_traits@D@std@@V?$allocator@D@2@@std@@V12@@std@@@2@@std@@I@std@@@2@$0A@@std@@@std@@QEAAPEAU?$_Tree_node@U?$pair@$$CBV?$map@V?$basic_string@DU?$char_traits@D@std@@V?$allocator@D@2@@std@@V12@U?$less@V?$basic_string@DU?$char_traits@D@std@@V?$allocator@D@2@@std@@@2@V?$allocator@U?$pair@$$CBV?$basic_string@DU?$char_traits@D@std@@V?$allocator@D@2@@std@@V12@@std@@@2@@std@@I@std@@PEAX@1@AEBUpiecewise_construct_t@1@$$QEAV?$tuple@AEBV?$map@V?$basic_string@DU?$char_traits@D@std@@V?$allocator@D@2@@std@@V12@U?$less@V?$basic_string@DU?$char_traits@D@std@@V?$allocator@D@2@@std@@@2@V?$allocator@U?$pair@$$CBV?$basic_string@DU?$char_traits@D@std@@V?$allocator@D@2@@std@@V12@@std@@@2@@std@@@1@$$QEAV?$tuple@$$V@1@@Z
	??$_Copy@U_Copy_tag@?$_Tree@V?$_Tmap_traits@V?$basic_string@DU?$char_traits@D@std@@V?$allocator@D@2@@std@@V12@U?$less@V?$basic_string@DU?$char_traits@D@std@@V?$allocator@D@2@@std@@@2@V?$allocator@U?$pair@$$CBV?$basic_string@DU?$char_traits@D@std@@V?$allocator@D@2@@std@@V12@@std@@@2@$0A@@std@@@std@@@?$_Tree@V?$_Tmap_traits@V?$basic_string@DU?$char_traits@D@std@@V?$allocator@D@2@@std@@V12@U?$less@V?$basic_string@DU?$char_traits@D@std@@V?$allocator@D@2@@std@@@2@V?$allocator@U?$pair@$$CBV?$basic_string@DU?$char_traits@D@std@@V?$allocator@D@2@@std@@V12@@std@@@2@$0A@@std@@@std@@IEAAXAEBV01@U_Copy_tag@01@@Z
	??$_Copy_nodes@U_Copy_tag@?$_Tree@V?$_Tmap_traits@V?$basic_string@DU?$char_traits@D@std@@V?$allocator@D@2@@std@@V12@U?$less@V?$basic_string@DU?$char_traits@D@std@@V?$allocator@D@2@@std@@@2@V?$allocator@U?$pair@$$CBV?$basic_string@DU?$char_traits@D@std@@V?$allocator@D@2@@std@@V12@@std@@@2@$0A@@std@@@std@@@?$_Tree@V?$_Tmap_traits@V?$basic_string@DU?$char_traits@D@std@@V?$allocator@D@2@@std@@V12@U?$less@V?$basic_string@DU?$char_traits@D@std@@V?$allocator@D@2@@std@@@2@V?$allocator@U?$pair@$$CBV?$basic_string@DU?$char_traits@D@std@@V?$allocator@D@2@@std@@V12@@std@@@2@$0A@@std@@@std@@IEAAPEAU?$_Tree_node@U?$pair@$$CBV?$basic_string@DU?$char_traits@D@std@@V?$allocator@D@2@@std@@V12@@std@@PEAX@1@PEAU21@0U_Copy_tag@01@@Z
	??$_Destroy_range@V?$allocator@U?$pair@W4FunctionType@detail@data@matlab@@V?$basic_string@DU?$char_traits@D@std@@V?$allocator@D@2@@std@@@std@@@std@@@std@@YAXPEAU?$pair@W4FunctionType@detail@data@matlab@@V?$basic_string@DU?$char_traits@D@std@@V?$allocator@D@2@@std@@@0@0AEAV?$allocator@U?$pair@W4FunctionType@detail@data@matlab@@V?$basic_string@DU?$char_traits@D@std@@V?$allocator@D@2@@std@@@std@@@0@@Z
	??$_Destroy_range@V?$allocator@V?$basic_string@DU?$char_traits@D@std@@V?$allocator@D@2@@std@@@std@@@std@@YAXPEAV?$basic_string@DU?$char_traits@D@std@@V?$allocator@D@2@@0@0AEAV?$allocator@V?$basic_string@DU?$char_traits@D@std@@V?$allocator@D@2@@std@@@0@@Z
	??$_Emplace_back@AEBU?$pair@W4FunctionType@detail@data@matlab@@V?$basic_string@DU?$char_traits@D@std@@V?$allocator@D@2@@std@@@std@@@?$_Uninitialized_backout_al@PEAU?$pair@W4FunctionType@detail@data@matlab@@V?$basic_string@DU?$char_traits@D@std@@V?$allocator@D@2@@std@@@std@@V?$allocator@U?$pair@W4FunctionType@detail@data@matlab@@V?$basic_string@DU?$char_traits@D@std@@V?$allocator@D@2@@std@@@std@@@2@@std@@QEAAXAEBU?$pair@W4FunctionType@detail@data@matlab@@V?$basic_string@DU?$char_traits@D@std@@V?$allocator@D@2@@std@@@1@@Z
	??$_Emplace_back_with_unused_capacity@AEBU?$Point_@V?$allocator@X@std@@@geometry_msgs@@@?$vector@U?$Point_@V?$allocator@X@std@@@geometry_msgs@@V?$allocator@U?$Point_@V?$allocator@X@std@@@geometry_msgs@@@std@@@std@@AEAAXAEBU?$Point_@V?$allocator@X@std@@@geometry_msgs@@@Z
	??$_Emplace_back_with_unused_capacity@AEBV?$basic_string@DU?$char_traits@D@std@@V?$allocator@D@2@@std@@@?$vector@V?$basic_string@DU?$char_traits@D@std@@V?$allocator@D@2@@std@@V?$allocator@V?$basic_string@DU?$char_traits@D@std@@V?$allocator@D@2@@std@@@2@@std@@AEAAXAEBV?$basic_string@DU?$char_traits@D@std@@V?$allocator@D@2@@1@@Z
	??$_Emplace_reallocate@AEBU?$Point_@V?$allocator@X@std@@@geometry_msgs@@@?$vector@U?$Point_@V?$allocator@X@std@@@geometry_msgs@@V?$allocator@U?$Point_@V?$allocator@X@std@@@geometry_msgs@@@std@@@std@@QEAAPEAU?$Point_@V?$allocator@X@std@@@geometry_msgs@@QEAU23@AEBU23@@Z
	??$_Emplace_reallocate@AEBV?$basic_string@DU?$char_traits@D@std@@V?$allocator@D@2@@std@@@?$vector@V?$basic_string@DU?$char_traits@D@std@@V?$allocator@D@2@@std@@V?$allocator@V?$basic_string@DU?$char_traits@D@std@@V?$allocator@D@2@@std@@@2@@std@@QEAAPEAV?$basic_string@DU?$char_traits@D@std@@V?$allocator@D@2@@1@QEAV21@AEBV21@@Z
	??$_Enable_shared_from_this1@V?$ROSBagWriterImpl@U?$FlightPlan_@V?$allocator@X@std@@@siam_main@@Vsiam_main_msg_FlightPlan_common@@@@V1@@std@@YAXAEBV?$shared_ptr@V?$ROSBagWriterImpl@U?$FlightPlan_@V?$allocator@X@std@@@siam_main@@Vsiam_main_msg_FlightPlan_common@@@@@0@PEAV?$ROSBagWriterImpl@U?$FlightPlan_@V?$allocator@X@std@@@siam_main@@Vsiam_main_msg_FlightPlan_common@@@@U?$integral_constant@_N$0A@@0@@Z
	??$_Enable_shared_from_this1@V?$ROSPublisherImpl@U?$FlightPlan_@V?$allocator@X@std@@@siam_main@@Vsiam_main_msg_FlightPlan_common@@@@V1@@std@@YAXAEBV?$shared_ptr@V?$ROSPublisherImpl@U?$FlightPlan_@V?$allocator@X@std@@@siam_main@@Vsiam_main_msg_FlightPlan_common@@@@@0@PEAV?$ROSPublisherImpl@U?$FlightPlan_@V?$allocator@X@std@@@siam_main@@Vsiam_main_msg_FlightPlan_common@@@@U?$integral_constant@_N$0A@@0@@Z
	??$_Enable_shared_from_this1@V?$ROSSubscriberImpl@U?$FlightPlan_@V?$allocator@X@std@@@siam_main@@V?$shared_ptr@$$CBU?$FlightPlan_@V?$allocator@X@std@@@siam_main@@@mwboost@@Vsiam_main_msg_FlightPlan_common@@@@V1@@std@@YAXAEBV?$shared_ptr@V?$ROSSubscriberImpl@U?$FlightPlan_@V?$allocator@X@std@@@siam_main@@V?$shared_ptr@$$CBU?$FlightPlan_@V?$allocator@X@std@@@siam_main@@@mwboost@@Vsiam_main_msg_FlightPlan_common@@@@@0@PEAV?$ROSSubscriberImpl@U?$FlightPlan_@V?$allocator@X@std@@@siam_main@@V?$shared_ptr@$$CBU?$FlightPlan_@V?$allocator@X@std@@@siam_main@@@mwboost@@Vsiam_main_msg_FlightPlan_common@@@@U?$integral_constant@_N$0A@@0@@Z
	??$_Enable_shared_from_this1@VArrayFactoryImpl@impl@data@matlab@@V1234@@std@@YAXAEBV?$shared_ptr@VArrayFactoryImpl@impl@data@matlab@@@0@PEAVArrayFactoryImpl@impl@data@matlab@@U?$integral_constant@_N$0A@@0@@Z
	??$_Enable_shared_from_this1@VArrayImpl@impl@data@matlab@@V1234@@std@@YAXAEBV?$shared_ptr@VArrayImpl@impl@data@matlab@@@0@PEAVArrayImpl@impl@data@matlab@@U?$integral_constant@_N$0A@@0@@Z
	??$_Enable_shared_from_this1@VIteratorImpl@detail@data@matlab@@V1234@@std@@YAXAEBV?$shared_ptr@VIteratorImpl@detail@data@matlab@@@0@PEAVIteratorImpl@detail@data@matlab@@U?$integral_constant@_N$0A@@0@@Z
	??$_Enable_shared_from_this1@VNameListImpl@detail@data@matlab@@V1234@@std@@YAXAEBV?$shared_ptr@VNameListImpl@detail@data@matlab@@@0@PEAVNameListImpl@detail@data@matlab@@U?$integral_constant@_N$0A@@0@@Z
	??$_Enable_shared_from_this1@VPublisher@ros@@V12@@std@@YAXAEBV?$shared_ptr@VPublisher@ros@@@0@PEAVPublisher@ros@@U?$integral_constant@_N$0A@@0@@Z
	??$_Enable_shared_from_this1@VReferenceImpl@detail@data@matlab@@V1234@@std@@YAXAEBV?$shared_ptr@VReferenceImpl@detail@data@matlab@@@0@PEAVReferenceImpl@detail@data@matlab@@U?$integral_constant@_N$0A@@0@@Z
	??$_Enable_shared_from_this1@VSubscriber@ros@@V12@@std@@YAXAEBV?$shared_ptr@VSubscriber@ros@@@0@PEAVSubscriber@ros@@U?$integral_constant@_N$0A@@0@@Z
	??$_Enable_shared_from_this@V?$ROSBagWriterImpl@U?$FlightPlan_@V?$allocator@X@std@@@siam_main@@Vsiam_main_msg_FlightPlan_common@@@@V1@@std@@YAXAEBV?$shared_ptr@V?$ROSBagWriterImpl@U?$FlightPlan_@V?$allocator@X@std@@@siam_main@@Vsiam_main_msg_FlightPlan_common@@@@@0@PEAV?$ROSBagWriterImpl@U?$FlightPlan_@V?$allocator@X@std@@@siam_main@@Vsiam_main_msg_FlightPlan_common@@@@@Z
	??$_Enable_shared_from_this@V?$ROSPublisherImpl@U?$FlightPlan_@V?$allocator@X@std@@@siam_main@@Vsiam_main_msg_FlightPlan_common@@@@V1@@std@@YAXAEBV?$shared_ptr@V?$ROSPublisherImpl@U?$FlightPlan_@V?$allocator@X@std@@@siam_main@@Vsiam_main_msg_FlightPlan_common@@@@@0@PEAV?$ROSPublisherImpl@U?$FlightPlan_@V?$allocator@X@std@@@siam_main@@Vsiam_main_msg_FlightPlan_common@@@@@Z
	??$_Enable_shared_from_this@V?$ROSSubscriberImpl@U?$FlightPlan_@V?$allocator@X@std@@@siam_main@@V?$shared_ptr@$$CBU?$FlightPlan_@V?$allocator@X@std@@@siam_main@@@mwboost@@Vsiam_main_msg_FlightPlan_common@@@@V1@@std@@YAXAEBV?$shared_ptr@V?$ROSSubscriberImpl@U?$FlightPlan_@V?$allocator@X@std@@@siam_main@@V?$shared_ptr@$$CBU?$FlightPlan_@V?$allocator@X@std@@@siam_main@@@mwboost@@Vsiam_main_msg_FlightPlan_common@@@@@0@PEAV?$ROSSubscriberImpl@U?$FlightPlan_@V?$allocator@X@std@@@siam_main@@V?$shared_ptr@$$CBU?$FlightPlan_@V?$allocator@X@std@@@siam_main@@@mwboost@@Vsiam_main_msg_FlightPlan_common@@@@@Z
	??$_Enable_shared_from_this@VArrayFactoryImpl@impl@data@matlab@@V1234@@std@@YAXAEBV?$shared_ptr@VArrayFactoryImpl@impl@data@matlab@@@0@PEAVArrayFactoryImpl@impl@data@matlab@@@Z
	??$_Enable_shared_from_this@VArrayImpl@impl@data@matlab@@V1234@@std@@YAXAEBV?$shared_ptr@VArrayImpl@impl@data@matlab@@@0@PEAVArrayImpl@impl@data@matlab@@@Z
	??$_Enable_shared_from_this@VIteratorImpl@detail@data@matlab@@V1234@@std@@YAXAEBV?$shared_ptr@VIteratorImpl@detail@data@matlab@@@0@PEAVIteratorImpl@detail@data@matlab@@@Z
	??$_Enable_shared_from_this@VNameListImpl@detail@data@matlab@@V1234@@std@@YAXAEBV?$shared_ptr@VNameListImpl@detail@data@matlab@@@0@PEAVNameListImpl@detail@data@matlab@@@Z
	??$_Enable_shared_from_this@VPublisher@ros@@V12@@std@@YAXAEBV?$shared_ptr@VPublisher@ros@@@0@PEAVPublisher@ros@@@Z
	??$_Enable_shared_from_this@VReferenceImpl@detail@data@matlab@@V1234@@std@@YAXAEBV?$shared_ptr@VReferenceImpl@detail@data@matlab@@@0@PEAVReferenceImpl@detail@data@matlab@@@Z
	??$_Enable_shared_from_this@VSubscriber@ros@@V12@@std@@YAXAEBV?$shared_ptr@VSubscriber@ros@@@0@PEAVSubscriber@ros@@@Z
	??$_Freenode0@V?$allocator@U?$_Tree_node@U?$pair@$$CBII@std@@PEAX@std@@@std@@@?$_Tree_node@U?$pair@$$CBII@std@@PEAX@std@@SAXAEAV?$allocator@U?$_Tree_node@U?$pair@$$CBII@std@@PEAX@std@@@1@PEAU01@@Z
	??$_Freenode0@V?$allocator@U?$_Tree_node@U?$pair@$$CBIPEAUConnectionInfo@rosbag@@@std@@PEAX@std@@@std@@@?$_Tree_node@U?$pair@$$CBIPEAUConnectionInfo@rosbag@@@std@@PEAX@std@@SAXAEAV?$allocator@U?$_Tree_node@U?$pair@$$CBIPEAUConnectionInfo@rosbag@@@std@@PEAX@std@@@1@PEAU01@@Z
	??$_Freenode0@V?$allocator@U?$_Tree_node@U?$pair@$$CBIV?$multiset@UIndexEntry@rosbag@@U?$less@UIndexEntry@rosbag@@@std@@V?$allocator@UIndexEntry@rosbag@@@4@@std@@@std@@PEAX@std@@@std@@@?$_Tree_node@U?$pair@$$CBIV?$multiset@UIndexEntry@rosbag@@U?$less@UIndexEntry@rosbag@@@std@@V?$allocator@UIndexEntry@rosbag@@@4@@std@@@std@@PEAX@std@@SAXAEAV?$allocator@U?$_Tree_node@U?$pair@$$CBIV?$multiset@UIndexEntry@rosbag@@U?$less@UIndexEntry@rosbag@@@std@@V?$allocator@UIndexEntry@rosbag@@@4@@std@@@std@@PEAX@std@@@1@PEAU01@@Z
	??$_Freenode0@V?$allocator@U?$_Tree_node@U?$pair@$$CBV?$basic_string@DU?$char_traits@D@std@@V?$allocator@D@2@@std@@I@std@@PEAX@std@@@std@@@?$_Tree_node@U?$pair@$$CBV?$basic_string@DU?$char_traits@D@std@@V?$allocator@D@2@@std@@I@std@@PEAX@std@@SAXAEAV?$allocator@U?$_Tree_node@U?$pair@$$CBV?$basic_string@DU?$char_traits@D@std@@V?$allocator@D@2@@std@@I@std@@PEAX@std@@@1@PEAU01@@Z
	??$_Freenode0@V?$allocator@U?$_Tree_node@U?$pair@$$CBV?$basic_string@DU?$char_traits@D@std@@V?$allocator@D@2@@std@@PEAVAbstractMetaObjectBase@impl@ros1_class_loader@@@std@@PEAX@std@@@std@@@?$_Tree_node@U?$pair@$$CBV?$basic_string@DU?$char_traits@D@std@@V?$allocator@D@2@@std@@PEAVAbstractMetaObjectBase@impl@ros1_class_loader@@@std@@PEAX@std@@SAXAEAV?$allocator@U?$_Tree_node@U?$pair@$$CBV?$basic_string@DU?$char_traits@D@std@@V?$allocator@D@2@@std@@PEAVAbstractMetaObjectBase@impl@ros1_class_loader@@@std@@PEAX@std@@@1@PEAU01@@Z
	??$_Freenode0@V?$allocator@U?$_Tree_node@U?$pair@$$CBV?$basic_string@DU?$char_traits@D@std@@V?$allocator@D@2@@std@@V12@@std@@PEAX@std@@@std@@@?$_Tree_node@U?$pair@$$CBV?$basic_string@DU?$char_traits@D@std@@V?$allocator@D@2@@std@@V12@@std@@PEAX@std@@SAXAEAV?$allocator@U?$_Tree_node@U?$pair@$$CBV?$basic_string@DU?$char_traits@D@std@@V?$allocator@D@2@@std@@V12@@std@@PEAX@std@@@1@PEAU01@@Z
	??$_Freenode0@V?$allocator@U?$_Tree_node@U?$pair@$$CBV?$basic_string@DU?$char_traits@D@std@@V?$allocator@D@2@@std@@V?$shared_ptr@VMATLABROSMsgInterfaceBase@@@mwboost@@@std@@PEAX@std@@@std@@@?$_Tree_node@U?$pair@$$CBV?$basic_string@DU?$char_traits@D@std@@V?$allocator@D@2@@std@@V?$shared_ptr@VMATLABROSMsgInterfaceBase@@@mwboost@@@std@@PEAX@std@@SAXAEAV?$allocator@U?$_Tree_node@U?$pair@$$CBV?$basic_string@DU?$char_traits@D@std@@V?$allocator@D@2@@std@@V?$shared_ptr@VMATLABROSMsgInterfaceBase@@@mwboost@@@std@@PEAX@std@@@1@PEAU01@@Z
	??$_Freenode0@V?$allocator@U?$_Tree_node@U?$pair@$$CBV?$map@V?$basic_string@DU?$char_traits@D@std@@V?$allocator@D@2@@std@@V12@U?$less@V?$basic_string@DU?$char_traits@D@std@@V?$allocator@D@2@@std@@@2@V?$allocator@U?$pair@$$CBV?$basic_string@DU?$char_traits@D@std@@V?$allocator@D@2@@std@@V12@@std@@@2@@std@@I@std@@PEAX@std@@@std@@@?$_Tree_node@U?$pair@$$CBV?$map@V?$basic_string@DU?$char_traits@D@std@@V?$allocator@D@2@@std@@V12@U?$less@V?$basic_string@DU?$char_traits@D@std@@V?$allocator@D@2@@std@@@2@V?$allocator@U?$pair@$$CBV?$basic_string@DU?$char_traits@D@std@@V?$allocator@D@2@@std@@V12@@std@@@2@@std@@I@std@@PEAX@std@@SAXAEAV?$allocator@U?$_Tree_node@U?$pair@$$CBV?$map@V?$basic_string@DU?$char_traits@D@std@@V?$allocator@D@2@@std@@V12@U?$less@V?$basic_string@DU?$char_traits@D@std@@V?$allocator@D@2@@std@@@2@V?$allocator@U?$pair@$$CBV?$basic_string@DU?$char_traits@D@std@@V?$allocator@D@2@@std@@V12@@std@@@2@@std@@I@std@@PEAX@std@@@1@PEAU01@@Z
	??$_Freenode0@V?$allocator@U?$_Tree_node@UIndexEntry@rosbag@@PEAX@std@@@std@@@?$_Tree_node@UIndexEntry@rosbag@@PEAX@std@@SAXAEAV?$allocator@U?$_Tree_node@UIndexEntry@rosbag@@PEAX@std@@@1@PEAU01@@Z
	??$_Getvals@_W@?$time_get@DV?$istreambuf_iterator@DU?$char_traits@D@std@@@std@@@std@@IEAAX_WAEBV_Locinfo@1@@Z
	??$_Getvals@_W@?$time_get@_WV?$istreambuf_iterator@_WU?$char_traits@_W@std@@@std@@@std@@IEAAX_WAEBV_Locinfo@1@@Z
	??$_Insert_at@AEAU?$pair@$$CBII@std@@PEAU?$_Tree_node@U?$pair@$$CBII@std@@PEAX@2@@?$_Tree@V?$_Tmap_traits@IIU?$less@I@std@@V?$allocator@U?$pair@$$CBII@std@@@2@$0A@@std@@@std@@IEAA?AV?$_Tree_iterator@V?$_Tree_val@U?$_Tree_simple_types@U?$pair@$$CBII@std@@@std@@@std@@@1@_NPEAU?$_Tree_node@U?$pair@$$CBII@std@@PEAX@1@AEAU?$pair@$$CBII@1@1@Z
	??$_Insert_at@AEAU?$pair@$$CBIPEAUConnectionInfo@rosbag@@@std@@PEAU?$_Tree_node@U?$pair@$$CBIPEAUConnectionInfo@rosbag@@@std@@PEAX@2@@?$_Tree@V?$_Tmap_traits@IPEAUConnectionInfo@rosbag@@U?$less@I@std@@V?$allocator@U?$pair@$$CBIPEAUConnectionInfo@rosbag@@@std@@@4@$0A@@std@@@std@@IEAA?AV?$_Tree_iterator@V?$_Tree_val@U?$_Tree_simple_types@U?$pair@$$CBIPEAUConnectionInfo@rosbag@@@std@@@std@@@std@@@1@_NPEAU?$_Tree_node@U?$pair@$$CBIPEAUConnectionInfo@rosbag@@@std@@PEAX@1@AEAU?$pair@$$CBIPEAUConnectionInfo@rosbag@@@1@1@Z
	??$_Insert_at@AEAU?$pair@$$CBIV?$multiset@UIndexEntry@rosbag@@U?$less@UIndexEntry@rosbag@@@std@@V?$allocator@UIndexEntry@rosbag@@@4@@std@@@std@@PEAU?$_Tree_node@U?$pair@$$CBIV?$multiset@UIndexEntry@rosbag@@U?$less@UIndexEntry@rosbag@@@std@@V?$allocator@UIndexEntry@rosbag@@@4@@std@@@std@@PEAX@2@@?$_Tree@V?$_Tmap_traits@IV?$multiset@UIndexEntry@rosbag@@U?$less@UIndexEntry@rosbag@@@std@@V?$allocator@UIndexEntry@rosbag@@@4@@std@@U?$less@I@2@V?$allocator@U?$pair@$$CBIV?$multiset@UIndexEntry@rosbag@@U?$less@UIndexEntry@rosbag@@@std@@V?$allocator@UIndexEntry@rosbag@@@4@@std@@@std@@@2@$0A@@std@@@std@@IEAA?AV?$_Tree_iterator@V?$_Tree_val@U?$_Tree_simple_types@U?$pair@$$CBIV?$multiset@UIndexEntry@rosbag@@U?$less@UIndexEntry@rosbag@@@std@@V?$allocator@UIndexEntry@rosbag@@@4@@std@@@std@@@std@@@std@@@1@_NPEAU?$_Tree_node@U?$pair@$$CBIV?$multiset@UIndexEntry@rosbag@@U?$less@UIndexEntry@rosbag@@@std@@V?$allocator@UIndexEntry@rosbag@@@4@@std@@@std@@PEAX@1@AEAU?$pair@$$CBIV?$multiset@UIndexEntry@rosbag@@U?$less@UIndexEntry@rosbag@@@std@@V?$allocator@UIndexEntry@rosbag@@@4@@std@@@1@1@Z
	??$_Insert_at@AEAU?$pair@$$CBV?$basic_string@DU?$char_traits@D@std@@V?$allocator@D@2@@std@@I@std@@PEAU?$_Tree_node@U?$pair@$$CBV?$basic_string@DU?$char_traits@D@std@@V?$allocator@D@2@@std@@I@std@@PEAX@2@@?$_Tree@V?$_Tmap_traits@V?$basic_string@DU?$char_traits@D@std@@V?$allocator@D@2@@std@@IU?$less@V?$basic_string@DU?$char_traits@D@std@@V?$allocator@D@2@@std@@@2@V?$allocator@U?$pair@$$CBV?$basic_string@DU?$char_traits@D@std@@V?$allocator@D@2@@std@@I@std@@@2@$0A@@std@@@std@@IEAA?AV?$_Tree_iterator@V?$_Tree_val@U?$_Tree_simple_types@U?$pair@$$CBV?$basic_string@DU?$char_traits@D@std@@V?$allocator@D@2@@std@@I@std@@@std@@@std@@@1@_NPEAU?$_Tree_node@U?$pair@$$CBV?$basic_string@DU?$char_traits@D@std@@V?$allocator@D@2@@std@@I@std@@PEAX@1@AEAU?$pair@$$CBV?$basic_string@DU?$char_traits@D@std@@V?$allocator@D@2@@std@@I@1@1@Z
	??$_Insert_at@AEAU?$pair@$$CBV?$basic_string@DU?$char_traits@D@std@@V?$allocator@D@2@@std@@PEAVAbstractMetaObjectBase@impl@ros1_class_loader@@@std@@PEAU?$_Tree_node@U?$pair@$$CBV?$basic_string@DU?$char_traits@D@std@@V?$allocator@D@2@@std@@PEAVAbstractMetaObjectBase@impl@ros1_class_loader@@@std@@PEAX@2@@?$_Tree@V?$_Tmap_traits@V?$basic_string@DU?$char_traits@D@std@@V?$allocator@D@2@@std@@PEAVAbstractMetaObjectBase@impl@ros1_class_loader@@U?$less@V?$basic_string@DU?$char_traits@D@std@@V?$allocator@D@2@@std@@@2@V?$allocator@U?$pair@$$CBV?$basic_string@DU?$char_traits@D@std@@V?$allocator@D@2@@std@@PEAVAbstractMetaObjectBase@impl@ros1_class_loader@@@std@@@2@$0A@@std@@@std@@IEAA?AV?$_Tree_iterator@V?$_Tree_val@U?$_Tree_simple_types@U?$pair@$$CBV?$basic_string@DU?$char_traits@D@std@@V?$allocator@D@2@@std@@PEAVAbstractMetaObjectBase@impl@ros1_class_loader@@@std@@@std@@@std@@@1@_NPEAU?$_Tree_node@U?$pair@$$CBV?$basic_string@DU?$char_traits@D@std@@V?$allocator@D@2@@std@@PEAVAbstractMetaObjectBase@impl@ros1_class_loader@@@std@@PEAX@1@AEAU?$pair@$$CBV?$basic_string@DU?$char_traits@D@std@@V?$allocator@D@2@@std@@PEAVAbstractMetaObjectBase@impl@ros1_class_loader@@@1@1@Z
	??$_Insert_at@AEAU?$pair@$$CBV?$basic_string@DU?$char_traits@D@std@@V?$allocator@D@2@@std@@V12@@std@@PEAU?$_Tree_node@U?$pair@$$CBV?$basic_string@DU?$char_traits@D@std@@V?$allocator@D@2@@std@@V12@@std@@PEAX@2@@?$_Tree@V?$_Tmap_traits@V?$basic_string@DU?$char_traits@D@std@@V?$allocator@D@2@@std@@V12@U?$less@V?$basic_string@DU?$char_traits@D@std@@V?$allocator@D@2@@std@@@2@V?$allocator@U?$pair@$$CBV?$basic_string@DU?$char_traits@D@std@@V?$allocator@D@2@@std@@V12@@std@@@2@$0A@@std@@@std@@IEAA?AV?$_Tree_iterator@V?$_Tree_val@U?$_Tree_simple_types@U?$pair@$$CBV?$basic_string@DU?$char_traits@D@std@@V?$allocator@D@2@@std@@V12@@std@@@std@@@std@@@1@_NPEAU?$_Tree_node@U?$pair@$$CBV?$basic_string@DU?$char_traits@D@std@@V?$allocator@D@2@@std@@V12@@std@@PEAX@1@AEAU?$pair@$$CBV?$basic_string@DU?$char_traits@D@std@@V?$allocator@D@2@@std@@V12@@1@1@Z
	??$_Insert_at@AEAU?$pair@$$CBV?$basic_string@DU?$char_traits@D@std@@V?$allocator@D@2@@std@@V?$shared_ptr@VMATLABROSMsgInterfaceBase@@@mwboost@@@std@@PEAU?$_Tree_node@U?$pair@$$CBV?$basic_string@DU?$char_traits@D@std@@V?$allocator@D@2@@std@@V?$shared_ptr@VMATLABROSMsgInterfaceBase@@@mwboost@@@std@@PEAX@2@@?$_Tree@V?$_Tmap_traits@V?$basic_string@DU?$char_traits@D@std@@V?$allocator@D@2@@std@@V?$shared_ptr@VMATLABROSMsgInterfaceBase@@@mwboost@@U?$less@V?$basic_string@DU?$char_traits@D@std@@V?$allocator@D@2@@std@@@2@V?$allocator@U?$pair@$$CBV?$basic_string@DU?$char_traits@D@std@@V?$allocator@D@2@@std@@V?$shared_ptr@VMATLABROSMsgInterfaceBase@@@mwboost@@@std@@@2@$0A@@std@@@std@@IEAA?AV?$_Tree_iterator@V?$_Tree_val@U?$_Tree_simple_types@U?$pair@$$CBV?$basic_string@DU?$char_traits@D@std@@V?$allocator@D@2@@std@@V?$shared_ptr@VMATLABROSMsgInterfaceBase@@@mwboost@@@std@@@std@@@std@@@1@_NPEAU?$_Tree_node@U?$pair@$$CBV?$basic_string@DU?$char_traits@D@std@@V?$allocator@D@2@@std@@V?$shared_ptr@VMATLABROSMsgInterfaceBase@@@mwboost@@@std@@PEAX@1@AEAU?$pair@$$CBV?$basic_string@DU?$char_traits@D@std@@V?$allocator@D@2@@std@@V?$shared_ptr@VMATLABROSMsgInterfaceBase@@@mwboost@@@1@1@Z
	??$_Insert_at@AEAU?$pair@$$CBV?$map@V?$basic_string@DU?$char_traits@D@std@@V?$allocator@D@2@@std@@V12@U?$less@V?$basic_string@DU?$char_traits@D@std@@V?$allocator@D@2@@std@@@2@V?$allocator@U?$pair@$$CBV?$basic_string@DU?$char_traits@D@std@@V?$allocator@D@2@@std@@V12@@std@@@2@@std@@I@std@@PEAU?$_Tree_node@U?$pair@$$CBV?$map@V?$basic_string@DU?$char_traits@D@std@@V?$allocator@D@2@@std@@V12@U?$less@V?$basic_string@DU?$char_traits@D@std@@V?$allocator@D@2@@std@@@2@V?$allocator@U?$pair@$$CBV?$basic_string@DU?$char_traits@D@std@@V?$allocator@D@2@@std@@V12@@std@@@2@@std@@I@std@@PEAX@2@@?$_Tree@V?$_Tmap_traits@V?$map@V?$basic_string@DU?$char_traits@D@std@@V?$allocator@D@2@@std@@V12@U?$less@V?$basic_string@DU?$char_traits@D@std@@V?$allocator@D@2@@std@@@2@V?$allocator@U?$pair@$$CBV?$basic_string@DU?$char_traits@D@std@@V?$allocator@D@2@@std@@V12@@std@@@2@@std@@IU?$less@V?$map@V?$basic_string@DU?$char_traits@D@std@@V?$allocator@D@2@@std@@V12@U?$less@V?$basic_string@DU?$char_traits@D@std@@V?$allocator@D@2@@std@@@2@V?$allocator@U?$pair@$$CBV?$basic_string@DU?$char_traits@D@std@@V?$allocator@D@2@@std@@V12@@std@@@2@@std@@@2@V?$allocator@U?$pair@$$CBV?$map@V?$basic_string@DU?$char_traits@D@std@@V?$allocator@D@2@@std@@V12@U?$less@V?$basic_string@DU?$char_traits@D@std@@V?$allocator@D@2@@std@@@2@V?$allocator@U?$pair@$$CBV?$basic_string@DU?$char_traits@D@std@@V?$allocator@D@2@@std@@V12@@std@@@2@@std@@I@std@@@2@$0A@@std@@@std@@IEAA?AV?$_Tree_iterator@V?$_Tree_val@U?$_Tree_simple_types@U?$pair@$$CBV?$map@V?$basic_string@DU?$char_traits@D@std@@V?$allocator@D@2@@std@@V12@U?$less@V?$basic_string@DU?$char_traits@D@std@@V?$allocator@D@2@@std@@@2@V?$allocator@U?$pair@$$CBV?$basic_string@DU?$char_traits@D@std@@V?$allocator@D@2@@std@@V12@@std@@@2@@std@@I@std@@@std@@@std@@@1@_NPEAU?$_Tree_node@U?$pair@$$CBV?$map@V?$basic_string@DU?$char_traits@D@std@@V?$allocator@D@2@@std@@V12@U?$less@V?$basic_string@DU?$char_traits@D@std@@V?$allocator@D@2@@std@@@2@V?$allocator@U?$pair@$$CBV?$basic_string@DU?$char_traits@D@std@@V?$allocator@D@2@@std@@V12@@std@@@2@@std@@I@std@@PEAX@1@AEAU?$pair@$$CBV?$map@V?$basic_string@DU?$char_traits@D@std@@V?$allocator@D@2@@std@@V12@U?$less@V?$basic_string@DU?$char_traits@D@std@@V?$allocator@D@2@@std@@@2@V?$allocator@U?$pair@$$CBV?$basic_string@DU?$char_traits@D@std@@V?$allocator@D@2@@std@@V12@@std@@@2@@std@@I@1@1@Z
	??$_Insert_at@AEBUIndexEntry@rosbag@@U_Not_a_node_tag@std@@@?$_Tree@V?$_Tset_traits@UIndexEntry@rosbag@@U?$less@UIndexEntry@rosbag@@@std@@V?$allocator@UIndexEntry@rosbag@@@4@$00@std@@@std@@IEAA?AV?$_Tree_const_iterator@V?$_Tree_val@U?$_Tree_simple_types@UIndexEntry@rosbag@@@std@@@std@@@1@_NPEAU?$_Tree_node@UIndexEntry@rosbag@@PEAX@1@AEBUIndexEntry@rosbag@@U_Not_a_node_tag@1@@Z
	??$_Insert_hint@AEAU?$pair@$$CBII@std@@PEAU?$_Tree_node@U?$pair@$$CBII@std@@PEAX@2@@?$_Tree@V?$_Tmap_traits@IIU?$less@I@std@@V?$allocator@U?$pair@$$CBII@std@@@2@$0A@@std@@@std@@IEAA?AV?$_Tree_iterator@V?$_Tree_val@U?$_Tree_simple_types@U?$pair@$$CBII@std@@@std@@@std@@@1@V?$_Tree_const_iterator@V?$_Tree_val@U?$_Tree_simple_types@U?$pair@$$CBII@std@@@std@@@std@@@1@AEAU?$pair@$$CBII@1@PEAU?$_Tree_node@U?$pair@$$CBII@std@@PEAX@1@@Z
	??$_Insert_hint@AEAU?$pair@$$CBIPEAUConnectionInfo@rosbag@@@std@@PEAU?$_Tree_node@U?$pair@$$CBIPEAUConnectionInfo@rosbag@@@std@@PEAX@2@@?$_Tree@V?$_Tmap_traits@IPEAUConnectionInfo@rosbag@@U?$less@I@std@@V?$allocator@U?$pair@$$CBIPEAUConnectionInfo@rosbag@@@std@@@4@$0A@@std@@@std@@IEAA?AV?$_Tree_iterator@V?$_Tree_val@U?$_Tree_simple_types@U?$pair@$$CBIPEAUConnectionInfo@rosbag@@@std@@@std@@@std@@@1@V?$_Tree_const_iterator@V?$_Tree_val@U?$_Tree_simple_types@U?$pair@$$CBIPEAUConnectionInfo@rosbag@@@std@@@std@@@std@@@1@AEAU?$pair@$$CBIPEAUConnectionInfo@rosbag@@@1@PEAU?$_Tree_node@U?$pair@$$CBIPEAUConnectionInfo@rosbag@@@std@@PEAX@1@@Z
	??$_Insert_hint@AEAU?$pair@$$CBIV?$multiset@UIndexEntry@rosbag@@U?$less@UIndexEntry@rosbag@@@std@@V?$allocator@UIndexEntry@rosbag@@@4@@std@@@std@@PEAU?$_Tree_node@U?$pair@$$CBIV?$multiset@UIndexEntry@rosbag@@U?$less@UIndexEntry@rosbag@@@std@@V?$allocator@UIndexEntry@rosbag@@@4@@std@@@std@@PEAX@2@@?$_Tree@V?$_Tmap_traits@IV?$multiset@UIndexEntry@rosbag@@U?$less@UIndexEntry@rosbag@@@std@@V?$allocator@UIndexEntry@rosbag@@@4@@std@@U?$less@I@2@V?$allocator@U?$pair@$$CBIV?$multiset@UIndexEntry@rosbag@@U?$less@UIndexEntry@rosbag@@@std@@V?$allocator@UIndexEntry@rosbag@@@4@@std@@@std@@@2@$0A@@std@@@std@@IEAA?AV?$_Tree_iterator@V?$_Tree_val@U?$_Tree_simple_types@U?$pair@$$CBIV?$multiset@UIndexEntry@rosbag@@U?$less@UIndexEntry@rosbag@@@std@@V?$allocator@UIndexEntry@rosbag@@@4@@std@@@std@@@std@@@std@@@1@V?$_Tree_const_iterator@V?$_Tree_val@U?$_Tree_simple_types@U?$pair@$$CBIV?$multiset@UIndexEntry@rosbag@@U?$less@UIndexEntry@rosbag@@@std@@V?$allocator@UIndexEntry@rosbag@@@4@@std@@@std@@@std@@@std@@@1@AEAU?$pair@$$CBIV?$multiset@UIndexEntry@rosbag@@U?$less@UIndexEntry@rosbag@@@std@@V?$allocator@UIndexEntry@rosbag@@@4@@std@@@1@PEAU?$_Tree_node@U?$pair@$$CBIV?$multiset@UIndexEntry@rosbag@@U?$less@UIndexEntry@rosbag@@@std@@V?$allocator@UIndexEntry@rosbag@@@4@@std@@@std@@PEAX@1@@Z
	??$_Insert_hint@AEAU?$pair@$$CBV?$basic_string@DU?$char_traits@D@std@@V?$allocator@D@2@@std@@I@std@@PEAU?$_Tree_node@U?$pair@$$CBV?$basic_string@DU?$char_traits@D@std@@V?$allocator@D@2@@std@@I@std@@PEAX@2@@?$_Tree@V?$_Tmap_traits@V?$basic_string@DU?$char_traits@D@std@@V?$allocator@D@2@@std@@IU?$less@V?$basic_string@DU?$char_traits@D@std@@V?$allocator@D@2@@std@@@2@V?$allocator@U?$pair@$$CBV?$basic_string@DU?$char_traits@D@std@@V?$allocator@D@2@@std@@I@std@@@2@$0A@@std@@@std@@IEAA?AV?$_Tree_iterator@V?$_Tree_val@U?$_Tree_simple_types@U?$pair@$$CBV?$basic_string@DU?$char_traits@D@std@@V?$allocator@D@2@@std@@I@std@@@std@@@std@@@1@V?$_Tree_const_iterator@V?$_Tree_val@U?$_Tree_simple_types@U?$pair@$$CBV?$basic_string@DU?$char_traits@D@std@@V?$allocator@D@2@@std@@I@std@@@std@@@std@@@1@AEAU?$pair@$$CBV?$basic_string@DU?$char_traits@D@std@@V?$allocator@D@2@@std@@I@1@PEAU?$_Tree_node@U?$pair@$$CBV?$basic_string@DU?$char_traits@D@std@@V?$allocator@D@2@@std@@I@std@@PEAX@1@@Z
	??$_Insert_hint@AEAU?$pair@$$CBV?$basic_string@DU?$char_traits@D@std@@V?$allocator@D@2@@std@@PEAVAbstractMetaObjectBase@impl@ros1_class_loader@@@std@@PEAU?$_Tree_node@U?$pair@$$CBV?$basic_string@DU?$char_traits@D@std@@V?$allocator@D@2@@std@@PEAVAbstractMetaObjectBase@impl@ros1_class_loader@@@std@@PEAX@2@@?$_Tree@V?$_Tmap_traits@V?$basic_string@DU?$char_traits@D@std@@V?$allocator@D@2@@std@@PEAVAbstractMetaObjectBase@impl@ros1_class_loader@@U?$less@V?$basic_string@DU?$char_traits@D@std@@V?$allocator@D@2@@std@@@2@V?$allocator@U?$pair@$$CBV?$basic_string@DU?$char_traits@D@std@@V?$allocator@D@2@@std@@PEAVAbstractMetaObjectBase@impl@ros1_class_loader@@@std@@@2@$0A@@std@@@std@@IEAA?AV?$_Tree_iterator@V?$_Tree_val@U?$_Tree_simple_types@U?$pair@$$CBV?$basic_string@DU?$char_traits@D@std@@V?$allocator@D@2@@std@@PEAVAbstractMetaObjectBase@impl@ros1_class_loader@@@std@@@std@@@std@@@1@V?$_Tree_const_iterator@V?$_Tree_val@U?$_Tree_simple_types@U?$pair@$$CBV?$basic_string@DU?$char_traits@D@std@@V?$allocator@D@2@@std@@PEAVAbstractMetaObjectBase@impl@ros1_class_loader@@@std@@@std@@@std@@@1@AEAU?$pair@$$CBV?$basic_string@DU?$char_traits@D@std@@V?$allocator@D@2@@std@@PEAVAbstractMetaObjectBase@impl@ros1_class_loader@@@1@PEAU?$_Tree_node@U?$pair@$$CBV?$basic_string@DU?$char_traits@D@std@@V?$allocator@D@2@@std@@PEAVAbstractMetaObjectBase@impl@ros1_class_loader@@@std@@PEAX@1@@Z
	??$_Insert_hint@AEAU?$pair@$$CBV?$basic_string@DU?$char_traits@D@std@@V?$allocator@D@2@@std@@V12@@std@@PEAU?$_Tree_node@U?$pair@$$CBV?$basic_string@DU?$char_traits@D@std@@V?$allocator@D@2@@std@@V12@@std@@PEAX@2@@?$_Tree@V?$_Tmap_traits@V?$basic_string@DU?$char_traits@D@std@@V?$allocator@D@2@@std@@V12@U?$less@V?$basic_string@DU?$char_traits@D@std@@V?$allocator@D@2@@std@@@2@V?$allocator@U?$pair@$$CBV?$basic_string@DU?$char_traits@D@std@@V?$allocator@D@2@@std@@V12@@std@@@2@$0A@@std@@@std@@IEAA?AV?$_Tree_iterator@V?$_Tree_val@U?$_Tree_simple_types@U?$pair@$$CBV?$basic_string@DU?$char_traits@D@std@@V?$allocator@D@2@@std@@V12@@std@@@std@@@std@@@1@V?$_Tree_const_iterator@V?$_Tree_val@U?$_Tree_simple_types@U?$pair@$$CBV?$basic_string@DU?$char_traits@D@std@@V?$allocator@D@2@@std@@V12@@std@@@std@@@std@@@1@AEAU?$pair@$$CBV?$basic_string@DU?$char_traits@D@std@@V?$allocator@D@2@@std@@V12@@1@PEAU?$_Tree_node@U?$pair@$$CBV?$basic_string@DU?$char_traits@D@std@@V?$allocator@D@2@@std@@V12@@std@@PEAX@1@@Z
	??$_Insert_hint@AEAU?$pair@$$CBV?$basic_string@DU?$char_traits@D@std@@V?$allocator@D@2@@std@@V?$shared_ptr@VMATLABROSMsgInterfaceBase@@@mwboost@@@std@@PEAU?$_Tree_node@U?$pair@$$CBV?$basic_string@DU?$char_traits@D@std@@V?$allocator@D@2@@std@@V?$shared_ptr@VMATLABROSMsgInterfaceBase@@@mwboost@@@std@@PEAX@2@@?$_Tree@V?$_Tmap_traits@V?$basic_string@DU?$char_traits@D@std@@V?$allocator@D@2@@std@@V?$shared_ptr@VMATLABROSMsgInterfaceBase@@@mwboost@@U?$less@V?$basic_string@DU?$char_traits@D@std@@V?$allocator@D@2@@std@@@2@V?$allocator@U?$pair@$$CBV?$basic_string@DU?$char_traits@D@std@@V?$allocator@D@2@@std@@V?$shared_ptr@VMATLABROSMsgInterfaceBase@@@mwboost@@@std@@@2@$0A@@std@@@std@@IEAA?AV?$_Tree_iterator@V?$_Tree_val@U?$_Tree_simple_types@U?$pair@$$CBV?$basic_string@DU?$char_traits@D@std@@V?$allocator@D@2@@std@@V?$shared_ptr@VMATLABROSMsgInterfaceBase@@@mwboost@@@std@@@std@@@std@@@1@V?$_Tree_const_iterator@V?$_Tree_val@U?$_Tree_simple_types@U?$pair@$$CBV?$basic_string@DU?$char_traits@D@std@@V?$allocator@D@2@@std@@V?$shared_ptr@VMATLABROSMsgInterfaceBase@@@mwboost@@@std@@@std@@@std@@@1@AEAU?$pair@$$CBV?$basic_string@DU?$char_traits@D@std@@V?$allocator@D@2@@std@@V?$shared_ptr@VMATLABROSMsgInterfaceBase@@@mwboost@@@1@PEAU?$_Tree_node@U?$pair@$$CBV?$basic_string@DU?$char_traits@D@std@@V?$allocator@D@2@@std@@V?$shared_ptr@VMATLABROSMsgInterfaceBase@@@mwboost@@@std@@PEAX@1@@Z
	??$_Insert_hint@AEAU?$pair@$$CBV?$map@V?$basic_string@DU?$char_traits@D@std@@V?$allocator@D@2@@std@@V12@U?$less@V?$basic_string@DU?$char_traits@D@std@@V?$allocator@D@2@@std@@@2@V?$allocator@U?$pair@$$CBV?$basic_string@DU?$char_traits@D@std@@V?$allocator@D@2@@std@@V12@@std@@@2@@std@@I@std@@PEAU?$_Tree_node@U?$pair@$$CBV?$map@V?$basic_string@DU?$char_traits@D@std@@V?$allocator@D@2@@std@@V12@U?$less@V?$basic_string@DU?$char_traits@D@std@@V?$allocator@D@2@@std@@@2@V?$allocator@U?$pair@$$CBV?$basic_string@DU?$char_traits@D@std@@V?$allocator@D@2@@std@@V12@@std@@@2@@std@@I@std@@PEAX@2@@?$_Tree@V?$_Tmap_traits@V?$map@V?$basic_string@DU?$char_traits@D@std@@V?$allocator@D@2@@std@@V12@U?$less@V?$basic_string@DU?$char_traits@D@std@@V?$allocator@D@2@@std@@@2@V?$allocator@U?$pair@$$CBV?$basic_string@DU?$char_traits@D@std@@V?$allocator@D@2@@std@@V12@@std@@@2@@std@@IU?$less@V?$map@V?$basic_string@DU?$char_traits@D@std@@V?$allocator@D@2@@std@@V12@U?$less@V?$basic_string@DU?$char_traits@D@std@@V?$allocator@D@2@@std@@@2@V?$allocator@U?$pair@$$CBV?$basic_string@DU?$char_traits@D@std@@V?$allocator@D@2@@std@@V12@@std@@@2@@std@@@2@V?$allocator@U?$pair@$$CBV?$map@V?$basic_string@DU?$char_traits@D@std@@V?$allocator@D@2@@std@@V12@U?$less@V?$basic_string@DU?$char_traits@D@std@@V?$allocator@D@2@@std@@@2@V?$allocator@U?$pair@$$CBV?$basic_string@DU?$char_traits@D@std@@V?$allocator@D@2@@std@@V12@@std@@@2@@std@@I@std@@@2@$0A@@std@@@std@@IEAA?AV?$_Tree_iterator@V?$_Tree_val@U?$_Tree_simple_types@U?$pair@$$CBV?$map@V?$basic_string@DU?$char_traits@D@std@@V?$allocator@D@2@@std@@V12@U?$less@V?$basic_string@DU?$char_traits@D@std@@V?$allocator@D@2@@std@@@2@V?$allocator@U?$pair@$$CBV?$basic_string@DU?$char_traits@D@std@@V?$allocator@D@2@@std@@V12@@std@@@2@@std@@I@std@@@std@@@std@@@1@V?$_Tree_const_iterator@V?$_Tree_val@U?$_Tree_simple_types@U?$pair@$$CBV?$map@V?$basic_string@DU?$char_traits@D@std@@V?$allocator@D@2@@std@@V12@U?$less@V?$basic_string@DU?$char_traits@D@std@@V?$allocator@D@2@@std@@@2@V?$allocator@U?$pair@$$CBV?$basic_string@DU?$char_traits@D@std@@V?$allocator@D@2@@std@@V12@@std@@@2@@std@@I@std@@@std@@@std@@@1@AEAU?$pair@$$CBV?$map@V?$basic_string@DU?$char_traits@D@std@@V?$allocator@D@2@@std@@V12@U?$less@V?$basic_string@DU?$char_traits@D@std@@V?$allocator@D@2@@std@@@2@V?$allocator@U?$pair@$$CBV?$basic_string@DU?$char_traits@D@std@@V?$allocator@D@2@@std@@V12@@std@@@2@@std@@I@1@PEAU?$_Tree_node@U?$pair@$$CBV?$map@V?$basic_string@DU?$char_traits@D@std@@V?$allocator@D@2@@std@@V12@U?$less@V?$basic_string@DU?$char_traits@D@std@@V?$allocator@D@2@@std@@@2@V?$allocator@U?$pair@$$CBV?$basic_string@DU?$char_traits@D@std@@V?$allocator@D@2@@std@@V12@@std@@@2@@std@@I@std@@PEAX@1@@Z
	??$_Insert_hint@AEBUIndexEntry@rosbag@@U_Not_a_node_tag@std@@@?$_Tree@V?$_Tset_traits@UIndexEntry@rosbag@@U?$less@UIndexEntry@rosbag@@@std@@V?$allocator@UIndexEntry@rosbag@@@4@$00@std@@@std@@IEAA?AV?$_Tree_const_iterator@V?$_Tree_val@U?$_Tree_simple_types@UIndexEntry@rosbag@@@std@@@std@@@1@V21@AEBUIndexEntry@rosbag@@U_Not_a_node_tag@1@@Z
	??$_Insert_nohint@AEAU?$pair@$$CBII@std@@PEAU?$_Tree_node@U?$pair@$$CBII@std@@PEAX@2@@?$_Tree@V?$_Tmap_traits@IIU?$less@I@std@@V?$allocator@U?$pair@$$CBII@std@@@2@$0A@@std@@@std@@IEAA?AU?$pair@V?$_Tree_iterator@V?$_Tree_val@U?$_Tree_simple_types@U?$pair@$$CBII@std@@@std@@@std@@@std@@_N@1@_NAEAU?$pair@$$CBII@1@PEAU?$_Tree_node@U?$pair@$$CBII@std@@PEAX@1@@Z
	??$_Insert_nohint@AEAU?$pair@$$CBIPEAUConnectionInfo@rosbag@@@std@@PEAU?$_Tree_node@U?$pair@$$CBIPEAUConnectionInfo@rosbag@@@std@@PEAX@2@@?$_Tree@V?$_Tmap_traits@IPEAUConnectionInfo@rosbag@@U?$less@I@std@@V?$allocator@U?$pair@$$CBIPEAUConnectionInfo@rosbag@@@std@@@4@$0A@@std@@@std@@IEAA?AU?$pair@V?$_Tree_iterator@V?$_Tree_val@U?$_Tree_simple_types@U?$pair@$$CBIPEAUConnectionInfo@rosbag@@@std@@@std@@@std@@@std@@_N@1@_NAEAU?$pair@$$CBIPEAUConnectionInfo@rosbag@@@1@PEAU?$_Tree_node@U?$pair@$$CBIPEAUConnectionInfo@rosbag@@@std@@PEAX@1@@Z
	??$_Insert_nohint@AEAU?$pair@$$CBIV?$multiset@UIndexEntry@rosbag@@U?$less@UIndexEntry@rosbag@@@std@@V?$allocator@UIndexEntry@rosbag@@@4@@std@@@std@@PEAU?$_Tree_node@U?$pair@$$CBIV?$multiset@UIndexEntry@rosbag@@U?$less@UIndexEntry@rosbag@@@std@@V?$allocator@UIndexEntry@rosbag@@@4@@std@@@std@@PEAX@2@@?$_Tree@V?$_Tmap_traits@IV?$multiset@UIndexEntry@rosbag@@U?$less@UIndexEntry@rosbag@@@std@@V?$allocator@UIndexEntry@rosbag@@@4@@std@@U?$less@I@2@V?$allocator@U?$pair@$$CBIV?$multiset@UIndexEntry@rosbag@@U?$less@UIndexEntry@rosbag@@@std@@V?$allocator@UIndexEntry@rosbag@@@4@@std@@@std@@@2@$0A@@std@@@std@@IEAA?AU?$pair@V?$_Tree_iterator@V?$_Tree_val@U?$_Tree_simple_types@U?$pair@$$CBIV?$multiset@UIndexEntry@rosbag@@U?$less@UIndexEntry@rosbag@@@std@@V?$allocator@UIndexEntry@rosbag@@@4@@std@@@std@@@std@@@std@@@std@@_N@1@_NAEAU?$pair@$$CBIV?$multiset@UIndexEntry@rosbag@@U?$less@UIndexEntry@rosbag@@@std@@V?$allocator@UIndexEntry@rosbag@@@4@@std@@@1@PEAU?$_Tree_node@U?$pair@$$CBIV?$multiset@UIndexEntry@rosbag@@U?$less@UIndexEntry@rosbag@@@std@@V?$allocator@UIndexEntry@rosbag@@@4@@std@@@std@@PEAX@1@@Z
	??$_Insert_nohint@AEAU?$pair@$$CBV?$basic_string@DU?$char_traits@D@std@@V?$allocator@D@2@@std@@I@std@@PEAU?$_Tree_node@U?$pair@$$CBV?$basic_string@DU?$char_traits@D@std@@V?$allocator@D@2@@std@@I@std@@PEAX@2@@?$_Tree@V?$_Tmap_traits@V?$basic_string@DU?$char_traits@D@std@@V?$allocator@D@2@@std@@IU?$less@V?$basic_string@DU?$char_traits@D@std@@V?$allocator@D@2@@std@@@2@V?$allocator@U?$pair@$$CBV?$basic_string@DU?$char_traits@D@std@@V?$allocator@D@2@@std@@I@std@@@2@$0A@@std@@@std@@IEAA?AU?$pair@V?$_Tree_iterator@V?$_Tree_val@U?$_Tree_simple_types@U?$pair@$$CBV?$basic_string@DU?$char_traits@D@std@@V?$allocator@D@2@@std@@I@std@@@std@@@std@@@std@@_N@1@_NAEAU?$pair@$$CBV?$basic_string@DU?$char_traits@D@std@@V?$allocator@D@2@@std@@I@1@PEAU?$_Tree_node@U?$pair@$$CBV?$basic_string@DU?$char_traits@D@std@@V?$allocator@D@2@@std@@I@std@@PEAX@1@@Z
	??$_Insert_nohint@AEAU?$pair@$$CBV?$basic_string@DU?$char_traits@D@std@@V?$allocator@D@2@@std@@PEAVAbstractMetaObjectBase@impl@ros1_class_loader@@@std@@PEAU?$_Tree_node@U?$pair@$$CBV?$basic_string@DU?$char_traits@D@std@@V?$allocator@D@2@@std@@PEAVAbstractMetaObjectBase@impl@ros1_class_loader@@@std@@PEAX@2@@?$_Tree@V?$_Tmap_traits@V?$basic_string@DU?$char_traits@D@std@@V?$allocator@D@2@@std@@PEAVAbstractMetaObjectBase@impl@ros1_class_loader@@U?$less@V?$basic_string@DU?$char_traits@D@std@@V?$allocator@D@2@@std@@@2@V?$allocator@U?$pair@$$CBV?$basic_string@DU?$char_traits@D@std@@V?$allocator@D@2@@std@@PEAVAbstractMetaObjectBase@impl@ros1_class_loader@@@std@@@2@$0A@@std@@@std@@IEAA?AU?$pair@V?$_Tree_iterator@V?$_Tree_val@U?$_Tree_simple_types@U?$pair@$$CBV?$basic_string@DU?$char_traits@D@std@@V?$allocator@D@2@@std@@PEAVAbstractMetaObjectBase@impl@ros1_class_loader@@@std@@@std@@@std@@@std@@_N@1@_NAEAU?$pair@$$CBV?$basic_string@DU?$char_traits@D@std@@V?$allocator@D@2@@std@@PEAVAbstractMetaObjectBase@impl@ros1_class_loader@@@1@PEAU?$_Tree_node@U?$pair@$$CBV?$basic_string@DU?$char_traits@D@std@@V?$allocator@D@2@@std@@PEAVAbstractMetaObjectBase@impl@ros1_class_loader@@@std@@PEAX@1@@Z
	??$_Insert_nohint@AEAU?$pair@$$CBV?$basic_string@DU?$char_traits@D@std@@V?$allocator@D@2@@std@@V12@@std@@PEAU?$_Tree_node@U?$pair@$$CBV?$basic_string@DU?$char_traits@D@std@@V?$allocator@D@2@@std@@V12@@std@@PEAX@2@@?$_Tree@V?$_Tmap_traits@V?$basic_string@DU?$char_traits@D@std@@V?$allocator@D@2@@std@@V12@U?$less@V?$basic_string@DU?$char_traits@D@std@@V?$allocator@D@2@@std@@@2@V?$allocator@U?$pair@$$CBV?$basic_string@DU?$char_traits@D@std@@V?$allocator@D@2@@std@@V12@@std@@@2@$0A@@std@@@std@@IEAA?AU?$pair@V?$_Tree_iterator@V?$_Tree_val@U?$_Tree_simple_types@U?$pair@$$CBV?$basic_string@DU?$char_traits@D@std@@V?$allocator@D@2@@std@@V12@@std@@@std@@@std@@@std@@_N@1@_NAEAU?$pair@$$CBV?$basic_string@DU?$char_traits@D@std@@V?$allocator@D@2@@std@@V12@@1@PEAU?$_Tree_node@U?$pair@$$CBV?$basic_string@DU?$char_traits@D@std@@V?$allocator@D@2@@std@@V12@@std@@PEAX@1@@Z
	??$_Insert_nohint@AEAU?$pair@$$CBV?$basic_string@DU?$char_traits@D@std@@V?$allocator@D@2@@std@@V?$shared_ptr@VMATLABROSMsgInterfaceBase@@@mwboost@@@std@@PEAU?$_Tree_node@U?$pair@$$CBV?$basic_string@DU?$char_traits@D@std@@V?$allocator@D@2@@std@@V?$shared_ptr@VMATLABROSMsgInterfaceBase@@@mwboost@@@std@@PEAX@2@@?$_Tree@V?$_Tmap_traits@V?$basic_string@DU?$char_traits@D@std@@V?$allocator@D@2@@std@@V?$shared_ptr@VMATLABROSMsgInterfaceBase@@@mwboost@@U?$less@V?$basic_string@DU?$char_traits@D@std@@V?$allocator@D@2@@std@@@2@V?$allocator@U?$pair@$$CBV?$basic_string@DU?$char_traits@D@std@@V?$allocator@D@2@@std@@V?$shared_ptr@VMATLABROSMsgInterfaceBase@@@mwboost@@@std@@@2@$0A@@std@@@std@@IEAA?AU?$pair@V?$_Tree_iterator@V?$_Tree_val@U?$_Tree_simple_types@U?$pair@$$CBV?$basic_string@DU?$char_traits@D@std@@V?$allocator@D@2@@std@@V?$shared_ptr@VMATLABROSMsgInterfaceBase@@@mwboost@@@std@@@std@@@std@@@std@@_N@1@_NAEAU?$pair@$$CBV?$basic_string@DU?$char_traits@D@std@@V?$allocator@D@2@@std@@V?$shared_ptr@VMATLABROSMsgInterfaceBase@@@mwboost@@@1@PEAU?$_Tree_node@U?$pair@$$CBV?$basic_string@DU?$char_traits@D@std@@V?$allocator@D@2@@std@@V?$shared_ptr@VMATLABROSMsgInterfaceBase@@@mwboost@@@std@@PEAX@1@@Z
	??$_Insert_nohint@AEAU?$pair@$$CBV?$map@V?$basic_string@DU?$char_traits@D@std@@V?$allocator@D@2@@std@@V12@U?$less@V?$basic_string@DU?$char_traits@D@std@@V?$allocator@D@2@@std@@@2@V?$allocator@U?$pair@$$CBV?$basic_string@DU?$char_traits@D@std@@V?$allocator@D@2@@std@@V12@@std@@@2@@std@@I@std@@PEAU?$_Tree_node@U?$pair@$$CBV?$map@V?$basic_string@DU?$char_traits@D@std@@V?$allocator@D@2@@std@@V12@U?$less@V?$basic_string@DU?$char_traits@D@std@@V?$allocator@D@2@@std@@@2@V?$allocator@U?$pair@$$CBV?$basic_string@DU?$char_traits@D@std@@V?$allocator@D@2@@std@@V12@@std@@@2@@std@@I@std@@PEAX@2@@?$_Tree@V?$_Tmap_traits@V?$map@V?$basic_string@DU?$char_traits@D@std@@V?$allocator@D@2@@std@@V12@U?$less@V?$basic_string@DU?$char_traits@D@std@@V?$allocator@D@2@@std@@@2@V?$allocator@U?$pair@$$CBV?$basic_string@DU?$char_traits@D@std@@V?$allocator@D@2@@std@@V12@@std@@@2@@std@@IU?$less@V?$map@V?$basic_string@DU?$char_traits@D@std@@V?$allocator@D@2@@std@@V12@U?$less@V?$basic_string@DU?$char_traits@D@std@@V?$allocator@D@2@@std@@@2@V?$allocator@U?$pair@$$CBV?$basic_string@DU?$char_traits@D@std@@V?$allocator@D@2@@std@@V12@@std@@@2@@std@@@2@V?$allocator@U?$pair@$$CBV?$map@V?$basic_string@DU?$char_traits@D@std@@V?$allocator@D@2@@std@@V12@U?$less@V?$basic_string@DU?$char_traits@D@std@@V?$allocator@D@2@@std@@@2@V?$allocator@U?$pair@$$CBV?$basic_string@DU?$char_traits@D@std@@V?$allocator@D@2@@std@@V12@@std@@@2@@std@@I@std@@@2@$0A@@std@@@std@@IEAA?AU?$pair@V?$_Tree_iterator@V?$_Tree_val@U?$_Tree_simple_types@U?$pair@$$CBV?$map@V?$basic_string@DU?$char_traits@D@std@@V?$allocator@D@2@@std@@V12@U?$less@V?$basic_string@DU?$char_traits@D@std@@V?$allocator@D@2@@std@@@2@V?$allocator@U?$pair@$$CBV?$basic_string@DU?$char_traits@D@std@@V?$allocator@D@2@@std@@V12@@std@@@2@@std@@I@std@@@std@@@std@@@std@@_N@1@_NAEAU?$pair@$$CBV?$map@V?$basic_string@DU?$char_traits@D@std@@V?$allocator@D@2@@std@@V12@U?$less@V?$basic_string@DU?$char_traits@D@std@@V?$allocator@D@2@@std@@@2@V?$allocator@U?$pair@$$CBV?$basic_string@DU?$char_traits@D@std@@V?$allocator@D@2@@std@@V12@@std@@@2@@std@@I@1@PEAU?$_Tree_node@U?$pair@$$CBV?$map@V?$basic_string@DU?$char_traits@D@std@@V?$allocator@D@2@@std@@V12@U?$less@V?$basic_string@DU?$char_traits@D@std@@V?$allocator@D@2@@std@@@2@V?$allocator@U?$pair@$$CBV?$basic_string@DU?$char_traits@D@std@@V?$allocator@D@2@@std@@V12@@std@@@2@@std@@I@std@@PEAX@1@@Z
	??$_Insert_nohint@AEBUIndexEntry@rosbag@@U_Not_a_node_tag@std@@@?$_Tree@V?$_Tset_traits@UIndexEntry@rosbag@@U?$less@UIndexEntry@rosbag@@@std@@V?$allocator@UIndexEntry@rosbag@@@4@$00@std@@@std@@IEAA?AU?$pair@V?$_Tree_const_iterator@V?$_Tree_val@U?$_Tree_simple_types@UIndexEntry@rosbag@@@std@@@std@@@std@@_N@1@_NAEBUIndexEntry@rosbag@@U_Not_a_node_tag@1@@Z
	??$_Insert_range@PEAV?$basic_string@DU?$char_traits@D@std@@V?$allocator@D@2@@std@@@?$vector@V?$basic_string@DU?$char_traits@D@std@@V?$allocator@D@2@@std@@V?$allocator@V?$basic_string@DU?$char_traits@D@std@@V?$allocator@D@2@@std@@@2@@std@@AEAAXV?$_Vector_const_iterator@V?$_Vector_val@U?$_Simple_types@V?$basic_string@DU?$char_traits@D@std@@V?$allocator@D@2@@std@@@std@@@std@@@1@PEAV?$basic_string@DU?$char_traits@D@std@@V?$allocator@D@2@@1@1Uforward_iterator_tag@1@@Z
	??$_Lbound@I@?$_Tree@V?$_Tmap_traits@IIU?$less@I@std@@V?$allocator@U?$pair@$$CBII@std@@@2@$0A@@std@@@std@@IEBAPEAU?$_Tree_node@U?$pair@$$CBII@std@@PEAX@1@AEBI@Z
	??$_Lbound@I@?$_Tree@V?$_Tmap_traits@IPEAUConnectionInfo@rosbag@@U?$less@I@std@@V?$allocator@U?$pair@$$CBIPEAUConnectionInfo@rosbag@@@std@@@4@$0A@@std@@@std@@IEBAPEAU?$_Tree_node@U?$pair@$$CBIPEAUConnectionInfo@rosbag@@@std@@PEAX@1@AEBI@Z
	??$_Lbound@I@?$_Tree@V?$_Tmap_traits@IV?$multiset@UIndexEntry@rosbag@@U?$less@UIndexEntry@rosbag@@@std@@V?$allocator@UIndexEntry@rosbag@@@4@@std@@U?$less@I@2@V?$allocator@U?$pair@$$CBIV?$multiset@UIndexEntry@rosbag@@U?$less@UIndexEntry@rosbag@@@std@@V?$allocator@UIndexEntry@rosbag@@@4@@std@@@std@@@2@$0A@@std@@@std@@IEBAPEAU?$_Tree_node@U?$pair@$$CBIV?$multiset@UIndexEntry@rosbag@@U?$less@UIndexEntry@rosbag@@@std@@V?$allocator@UIndexEntry@rosbag@@@4@@std@@@std@@PEAX@1@AEBI@Z
	??$_Lbound@V?$basic_string@DU?$char_traits@D@std@@V?$allocator@D@2@@std@@@?$_Tree@V?$_Tmap_traits@V?$basic_string@DU?$char_traits@D@std@@V?$allocator@D@2@@std@@IU?$less@V?$basic_string@DU?$char_traits@D@std@@V?$allocator@D@2@@std@@@2@V?$allocator@U?$pair@$$CBV?$basic_string@DU?$char_traits@D@std@@V?$allocator@D@2@@std@@I@std@@@2@$0A@@std@@@std@@IEBAPEAU?$_Tree_node@U?$pair@$$CBV?$basic_string@DU?$char_traits@D@std@@V?$allocator@D@2@@std@@I@std@@PEAX@1@AEBV?$basic_string@DU?$char_traits@D@std@@V?$allocator@D@2@@1@@Z
	??$_Lbound@V?$basic_string@DU?$char_traits@D@std@@V?$allocator@D@2@@std@@@?$_Tree@V?$_Tmap_traits@V?$basic_string@DU?$char_traits@D@std@@V?$allocator@D@2@@std@@PEAVAbstractMetaObjectBase@impl@ros1_class_loader@@U?$less@V?$basic_string@DU?$char_traits@D@std@@V?$allocator@D@2@@std@@@2@V?$allocator@U?$pair@$$CBV?$basic_string@DU?$char_traits@D@std@@V?$allocator@D@2@@std@@PEAVAbstractMetaObjectBase@impl@ros1_class_loader@@@std@@@2@$0A@@std@@@std@@IEBAPEAU?$_Tree_node@U?$pair@$$CBV?$basic_string@DU?$char_traits@D@std@@V?$allocator@D@2@@std@@PEAVAbstractMetaObjectBase@impl@ros1_class_loader@@@std@@PEAX@1@AEBV?$basic_string@DU?$char_traits@D@std@@V?$allocator@D@2@@1@@Z
	??$_Lbound@V?$basic_string@DU?$char_traits@D@std@@V?$allocator@D@2@@std@@@?$_Tree@V?$_Tmap_traits@V?$basic_string@DU?$char_traits@D@std@@V?$allocator@D@2@@std@@V12@U?$less@V?$basic_string@DU?$char_traits@D@std@@V?$allocator@D@2@@std@@@2@V?$allocator@U?$pair@$$CBV?$basic_string@DU?$char_traits@D@std@@V?$allocator@D@2@@std@@V12@@std@@@2@$0A@@std@@@std@@IEBAPEAU?$_Tree_node@U?$pair@$$CBV?$basic_string@DU?$char_traits@D@std@@V?$allocator@D@2@@std@@V12@@std@@PEAX@1@AEBV?$basic_string@DU?$char_traits@D@std@@V?$allocator@D@2@@1@@Z
	??$_Lbound@V?$basic_string@DU?$char_traits@D@std@@V?$allocator@D@2@@std@@@?$_Tree@V?$_Tmap_traits@V?$basic_string@DU?$char_traits@D@std@@V?$allocator@D@2@@std@@V?$shared_ptr@VMATLABROSMsgInterfaceBase@@@mwboost@@U?$less@V?$basic_string@DU?$char_traits@D@std@@V?$allocator@D@2@@std@@@2@V?$allocator@U?$pair@$$CBV?$basic_string@DU?$char_traits@D@std@@V?$allocator@D@2@@std@@V?$shared_ptr@VMATLABROSMsgInterfaceBase@@@mwboost@@@std@@@2@$0A@@std@@@std@@IEBAPEAU?$_Tree_node@U?$pair@$$CBV?$basic_string@DU?$char_traits@D@std@@V?$allocator@D@2@@std@@V?$shared_ptr@VMATLABROSMsgInterfaceBase@@@mwboost@@@std@@PEAX@1@AEBV?$basic_string@DU?$char_traits@D@std@@V?$allocator@D@2@@1@@Z
	??$_Lbound@V?$map@V?$basic_string@DU?$char_traits@D@std@@V?$allocator@D@2@@std@@V12@U?$less@V?$basic_string@DU?$char_traits@D@std@@V?$allocator@D@2@@std@@@2@V?$allocator@U?$pair@$$CBV?$basic_string@DU?$char_traits@D@std@@V?$allocator@D@2@@std@@V12@@std@@@2@@std@@@?$_Tree@V?$_Tmap_traits@V?$map@V?$basic_string@DU?$char_traits@D@std@@V?$allocator@D@2@@std@@V12@U?$less@V?$basic_string@DU?$char_traits@D@std@@V?$allocator@D@2@@std@@@2@V?$allocator@U?$pair@$$CBV?$basic_string@DU?$char_traits@D@std@@V?$allocator@D@2@@std@@V12@@std@@@2@@std@@IU?$less@V?$map@V?$basic_string@DU?$char_traits@D@std@@V?$allocator@D@2@@std@@V12@U?$less@V?$basic_string@DU?$char_traits@D@std@@V?$allocator@D@2@@std@@@2@V?$allocator@U?$pair@$$CBV?$basic_string@DU?$char_traits@D@std@@V?$allocator@D@2@@std@@V12@@std@@@2@@std@@@2@V?$allocator@U?$pair@$$CBV?$map@V?$basic_string@DU?$char_traits@D@std@@V?$allocator@D@2@@std@@V12@U?$less@V?$basic_string@DU?$char_traits@D@std@@V?$allocator@D@2@@std@@@2@V?$allocator@U?$pair@$$CBV?$basic_string@DU?$char_traits@D@std@@V?$allocator@D@2@@std@@V12@@std@@@2@@std@@I@std@@@2@$0A@@std@@@std@@IEBAPEAU?$_Tree_node@U?$pair@$$CBV?$map@V?$basic_string@DU?$char_traits@D@std@@V?$allocator@D@2@@std@@V12@U?$less@V?$basic_string@DU?$char_traits@D@std@@V?$allocator@D@2@@std@@@2@V?$allocator@U?$pair@$$CBV?$basic_string@DU?$char_traits@D@std@@V?$allocator@D@2@@std@@V12@@std@@@2@@std@@I@std@@PEAX@1@AEBV?$map@V?$basic_string@DU?$char_traits@D@std@@V?$allocator@D@2@@std@@V12@U?$less@V?$basic_string@DU?$char_traits@D@std@@V?$allocator@D@2@@std@@@2@V?$allocator@U?$pair@$$CBV?$basic_string@DU?$char_traits@D@std@@V?$allocator@D@2@@std@@V12@@std@@@2@@1@@Z
	??$_Lex_compare_unchecked@V?$_Tree_unchecked_const_iterator@V?$_Tree_val@U?$_Tree_simple_types@U?$pair@$$CBV?$basic_string@DU?$char_traits@D@std@@V?$allocator@D@2@@std@@V12@@std@@@std@@@std@@U_Iterator_base0@2@@std@@V12@U?$less@X@2@@std@@YA_NV?$_Tree_unchecked_const_iterator@V?$_Tree_val@U?$_Tree_simple_types@U?$pair@$$CBV?$basic_string@DU?$char_traits@D@std@@V?$allocator@D@2@@std@@V12@@std@@@std@@@std@@U_Iterator_base0@2@@0@000U?$less@X@0@U?$_Lex_compare_optimize@X@0@@Z
	??$_Maklocstr@D@std@@YAPEADPEBDPEADAEBU_Cvtvec@@@Z
	??$_Maklocstr@_W@std@@YAPEA_WPEBDPEA_WAEBU_Cvtvec@@@Z
	??$_Move_backward_unchecked@PEAV?$basic_string@DU?$char_traits@D@std@@V?$allocator@D@2@@std@@PEAV12@@std@@YAPEAV?$basic_string@DU?$char_traits@D@std@@V?$allocator@D@2@@0@PEAV10@00@Z
	??$_Move_unchecked@PEAV?$basic_string@DU?$char_traits@D@std@@V?$allocator@D@2@@std@@PEAV12@@std@@YAPEAV?$basic_string@DU?$char_traits@D@std@@V?$allocator@D@2@@0@PEAV10@00@Z
	??$_Range_construct_or_tidy@PEBU?$pair@W4FunctionType@detail@data@matlab@@V?$basic_string@DU?$char_traits@D@std@@V?$allocator@D@2@@std@@@std@@@?$vector@U?$pair@W4FunctionType@detail@data@matlab@@V?$basic_string@DU?$char_traits@D@std@@V?$allocator@D@2@@std@@@std@@V?$allocator@U?$pair@W4FunctionType@detail@data@matlab@@V?$basic_string@DU?$char_traits@D@std@@V?$allocator@D@2@@std@@@std@@@2@@std@@AEAAXPEBU?$pair@W4FunctionType@detail@data@matlab@@V?$basic_string@DU?$char_traits@D@std@@V?$allocator@D@2@@std@@@1@0Uforward_iterator_tag@1@@Z
	??$_Range_construct_or_tidy@PEBV?$basic_string@DU?$char_traits@D@std@@V?$allocator@D@2@@std@@@?$vector@V?$basic_string@DU?$char_traits@D@std@@V?$allocator@D@2@@std@@V?$allocator@V?$basic_string@DU?$char_traits@D@std@@V?$allocator@D@2@@std@@@2@@std@@AEAAXPEBV?$basic_string@DU?$char_traits@D@std@@V?$allocator@D@2@@1@0Uforward_iterator_tag@1@@Z
	??$_Range_construct_or_tidy@PEBVArray@data@matlab@@@?$vector@VArray@data@matlab@@V?$allocator@VArray@data@matlab@@@std@@@std@@AEAAXPEBVArray@data@matlab@@0Uforward_iterator_tag@1@@Z
	??$_Range_construct_or_tidy@PEB_K@?$vector@_KV?$allocator@_K@std@@@std@@AEAAXPEB_K0Uforward_iterator_tag@1@@Z
	??$_Reallocate_for@V<lambda_66f57f934f28d61049862f64df852ff0>@@PEBD@?$basic_string@DU?$char_traits@D@std@@V?$allocator@D@2@@std@@QEAAAEAV01@_KV<lambda_66f57f934f28d61049862f64df852ff0>@@PEBD@Z
	??$_Reallocate_grow_by@V<lambda_319d5e083f45f90dcdce5dce53cbb275>@@D@?$basic_string@DU?$char_traits@D@std@@V?$allocator@D@2@@std@@QEAAAEAV01@_KV<lambda_319d5e083f45f90dcdce5dce53cbb275>@@D@Z
	??$_Reallocate_grow_by@V<lambda_65e615be2a453ca0576c979606f46740>@@PEBD_K@?$basic_string@DU?$char_traits@D@std@@V?$allocator@D@2@@std@@QEAAAEAV01@_KV<lambda_65e615be2a453ca0576c979606f46740>@@PEBD_K@Z
	??$_Reallocate_grow_by@V<lambda_9013ee9e23efe4882b67eff5b0ecf103>@@$$V@?$basic_string@DU?$char_traits@D@std@@V?$allocator@D@2@@std@@QEAAAEAV01@_KV<lambda_9013ee9e23efe4882b67eff5b0ecf103>@@@Z
	??$_Reallocate_grow_by@V<lambda_f3a66ab6a0570788f31503db83886f49>@@_KPEBD_K@?$basic_string@DU?$char_traits@D@std@@V?$allocator@D@2@@std@@QEAAAEAV01@_KV<lambda_f3a66ab6a0570788f31503db83886f49>@@_KPEBD2@Z
	??$_Resize@V<lambda_2ff8c67c5acc2e47b97d71ae8be9f9b8>@@@?$vector@U?$Point_@V?$allocator@X@std@@@geometry_msgs@@V?$allocator@U?$Point_@V?$allocator@X@std@@@geometry_msgs@@@std@@@std@@AEAAX_KV<lambda_2ff8c67c5acc2e47b97d71ae8be9f9b8>@@@Z
	??$_Setpd@PEAVArrayFactoryImpl@impl@data@matlab@@V<lambda_a4c5f97d4391fb4c09103a727c16defd>@@@?$shared_ptr@VArrayFactoryImpl@impl@data@matlab@@@std@@AEAAXPEAVArrayFactoryImpl@impl@data@matlab@@V<lambda_a4c5f97d4391fb4c09103a727c16defd>@@@Z
	??$_Setpd@PEAVArrayImpl@impl@data@matlab@@V<lambda_18bde30140702ba20a566c9dc393b8c0>@@@?$shared_ptr@VArrayImpl@impl@data@matlab@@@std@@AEAAXPEAVArrayImpl@impl@data@matlab@@V<lambda_18bde30140702ba20a566c9dc393b8c0>@@@Z
	??$_Setpd@PEAVArrayImpl@impl@data@matlab@@V<lambda_49bc69670bef5877f460780ec06c4b58>@@@?$shared_ptr@VArrayImpl@impl@data@matlab@@@std@@AEAAXPEAVArrayImpl@impl@data@matlab@@V<lambda_49bc69670bef5877f460780ec06c4b58>@@@Z
	??$_Setpd@PEAVIteratorImpl@detail@data@matlab@@V<lambda_1cc0c119369d3677f6f4efcaefc6d3c2>@@@?$shared_ptr@VIteratorImpl@detail@data@matlab@@@std@@AEAAXPEAVIteratorImpl@detail@data@matlab@@V<lambda_1cc0c119369d3677f6f4efcaefc6d3c2>@@@Z
	??$_Setpd@PEAVNameListImpl@detail@data@matlab@@V<lambda_9f3a4d0362104a3bede0405fafec76e1>@@@?$shared_ptr@VNameListImpl@detail@data@matlab@@@std@@AEAAXPEAVNameListImpl@detail@data@matlab@@V<lambda_9f3a4d0362104a3bede0405fafec76e1>@@@Z
	??$_Setpd@PEAVReferenceImpl@detail@data@matlab@@V<lambda_2615407b98e1f3a14023b76f0dedc381>@@@?$shared_ptr@VReferenceImpl@detail@data@matlab@@@std@@AEAAXPEAVReferenceImpl@detail@data@matlab@@V<lambda_2615407b98e1f3a14023b76f0dedc381>@@@Z
	??$_Try_emplace@AEBI$$V@?$map@IIU?$less@I@std@@V?$allocator@U?$pair@$$CBII@std@@@2@@std@@QEAA?AU?$pair@V?$_Tree_iterator@V?$_Tree_val@U?$_Tree_simple_types@U?$pair@$$CBII@std@@@std@@@std@@@std@@_N@1@AEBI@Z
	??$_Try_emplace@AEBI$$V@?$map@IPEAUConnectionInfo@rosbag@@U?$less@I@std@@V?$allocator@U?$pair@$$CBIPEAUConnectionInfo@rosbag@@@std@@@4@@std@@QEAA?AU?$pair@V?$_Tree_iterator@V?$_Tree_val@U?$_Tree_simple_types@U?$pair@$$CBIPEAUConnectionInfo@rosbag@@@std@@@std@@@std@@@std@@_N@1@AEBI@Z
	??$_Try_emplace@AEBI$$V@?$map@IV?$multiset@UIndexEntry@rosbag@@U?$less@UIndexEntry@rosbag@@@std@@V?$allocator@UIndexEntry@rosbag@@@4@@std@@U?$less@I@2@V?$allocator@U?$pair@$$CBIV?$multiset@UIndexEntry@rosbag@@U?$less@UIndexEntry@rosbag@@@std@@V?$allocator@UIndexEntry@rosbag@@@4@@std@@@std@@@2@@std@@QEAA?AU?$pair@V?$_Tree_iterator@V?$_Tree_val@U?$_Tree_simple_types@U?$pair@$$CBIV?$multiset@UIndexEntry@rosbag@@U?$less@UIndexEntry@rosbag@@@std@@V?$allocator@UIndexEntry@rosbag@@@4@@std@@@std@@@std@@@std@@@std@@_N@1@AEBI@Z
	??$_Try_emplace@AEBV?$basic_string@DU?$char_traits@D@std@@V?$allocator@D@2@@std@@$$V@?$map@V?$basic_string@DU?$char_traits@D@std@@V?$allocator@D@2@@std@@IU?$less@V?$basic_string@DU?$char_traits@D@std@@V?$allocator@D@2@@std@@@2@V?$allocator@U?$pair@$$CBV?$basic_string@DU?$char_traits@D@std@@V?$allocator@D@2@@std@@I@std@@@2@@std@@QEAA?AU?$pair@V?$_Tree_iterator@V?$_Tree_val@U?$_Tree_simple_types@U?$pair@$$CBV?$basic_string@DU?$char_traits@D@std@@V?$allocator@D@2@@std@@I@std@@@std@@@std@@@std@@_N@1@AEBV?$basic_string@DU?$char_traits@D@std@@V?$allocator@D@2@@1@@Z
	??$_Try_emplace@AEBV?$basic_string@DU?$char_traits@D@std@@V?$allocator@D@2@@std@@$$V@?$map@V?$basic_string@DU?$char_traits@D@std@@V?$allocator@D@2@@std@@PEAVAbstractMetaObjectBase@impl@ros1_class_loader@@U?$less@V?$basic_string@DU?$char_traits@D@std@@V?$allocator@D@2@@std@@@2@V?$allocator@U?$pair@$$CBV?$basic_string@DU?$char_traits@D@std@@V?$allocator@D@2@@std@@PEAVAbstractMetaObjectBase@impl@ros1_class_loader@@@std@@@2@@std@@QEAA?AU?$pair@V?$_Tree_iterator@V?$_Tree_val@U?$_Tree_simple_types@U?$pair@$$CBV?$basic_string@DU?$char_traits@D@std@@V?$allocator@D@2@@std@@PEAVAbstractMetaObjectBase@impl@ros1_class_loader@@@std@@@std@@@std@@@std@@_N@1@AEBV?$basic_string@DU?$char_traits@D@std@@V?$allocator@D@2@@1@@Z
	??$_Try_emplace@AEBV?$basic_string@DU?$char_traits@D@std@@V?$allocator@D@2@@std@@$$V@?$map@V?$basic_string@DU?$char_traits@D@std@@V?$allocator@D@2@@std@@V12@U?$less@V?$basic_string@DU?$char_traits@D@std@@V?$allocator@D@2@@std@@@2@V?$allocator@U?$pair@$$CBV?$basic_string@DU?$char_traits@D@std@@V?$allocator@D@2@@std@@V12@@std@@@2@@std@@QEAA?AU?$pair@V?$_Tree_iterator@V?$_Tree_val@U?$_Tree_simple_types@U?$pair@$$CBV?$basic_string@DU?$char_traits@D@std@@V?$allocator@D@2@@std@@V12@@std@@@std@@@std@@@std@@_N@1@AEBV?$basic_string@DU?$char_traits@D@std@@V?$allocator@D@2@@1@@Z
	??$_Try_emplace@AEBV?$basic_string@DU?$char_traits@D@std@@V?$allocator@D@2@@std@@$$V@?$map@V?$basic_string@DU?$char_traits@D@std@@V?$allocator@D@2@@std@@V?$shared_ptr@VMATLABROSMsgInterfaceBase@@@mwboost@@U?$less@V?$basic_string@DU?$char_traits@D@std@@V?$allocator@D@2@@std@@@2@V?$allocator@U?$pair@$$CBV?$basic_string@DU?$char_traits@D@std@@V?$allocator@D@2@@std@@V?$shared_ptr@VMATLABROSMsgInterfaceBase@@@mwboost@@@std@@@2@@std@@QEAA?AU?$pair@V?$_Tree_iterator@V?$_Tree_val@U?$_Tree_simple_types@U?$pair@$$CBV?$basic_string@DU?$char_traits@D@std@@V?$allocator@D@2@@std@@V?$shared_ptr@VMATLABROSMsgInterfaceBase@@@mwboost@@@std@@@std@@@std@@@std@@_N@1@AEBV?$basic_string@DU?$char_traits@D@std@@V?$allocator@D@2@@1@@Z
	??$_Try_emplace@AEBV?$map@V?$basic_string@DU?$char_traits@D@std@@V?$allocator@D@2@@std@@V12@U?$less@V?$basic_string@DU?$char_traits@D@std@@V?$allocator@D@2@@std@@@2@V?$allocator@U?$pair@$$CBV?$basic_string@DU?$char_traits@D@std@@V?$allocator@D@2@@std@@V12@@std@@@2@@std@@$$V@?$map@V?$map@V?$basic_string@DU?$char_traits@D@std@@V?$allocator@D@2@@std@@V12@U?$less@V?$basic_string@DU?$char_traits@D@std@@V?$allocator@D@2@@std@@@2@V?$allocator@U?$pair@$$CBV?$basic_string@DU?$char_traits@D@std@@V?$allocator@D@2@@std@@V12@@std@@@2@@std@@IU?$less@V?$map@V?$basic_string@DU?$char_traits@D@std@@V?$allocator@D@2@@std@@V12@U?$less@V?$basic_string@DU?$char_traits@D@std@@V?$allocator@D@2@@std@@@2@V?$allocator@U?$pair@$$CBV?$basic_string@DU?$char_traits@D@std@@V?$allocator@D@2@@std@@V12@@std@@@2@@std@@@2@V?$allocator@U?$pair@$$CBV?$map@V?$basic_string@DU?$char_traits@D@std@@V?$allocator@D@2@@std@@V12@U?$less@V?$basic_string@DU?$char_traits@D@std@@V?$allocator@D@2@@std@@@2@V?$allocator@U?$pair@$$CBV?$basic_string@DU?$char_traits@D@std@@V?$allocator@D@2@@std@@V12@@std@@@2@@std@@I@std@@@2@@std@@QEAA?AU?$pair@V?$_Tree_iterator@V?$_Tree_val@U?$_Tree_simple_types@U?$pair@$$CBV?$map@V?$basic_string@DU?$char_traits@D@std@@V?$allocator@D@2@@std@@V12@U?$less@V?$basic_string@DU?$char_traits@D@std@@V?$allocator@D@2@@std@@@2@V?$allocator@U?$pair@$$CBV?$basic_string@DU?$char_traits@D@std@@V?$allocator@D@2@@std@@V12@@std@@@2@@std@@I@std@@@std@@@std@@@std@@_N@1@AEBV?$map@V?$basic_string@DU?$char_traits@D@std@@V?$allocator@D@2@@std@@V12@U?$less@V?$basic_string@DU?$char_traits@D@std@@V?$allocator@D@2@@std@@@2@V?$allocator@U?$pair@$$CBV?$basic_string@DU?$char_traits@D@std@@V?$allocator@D@2@@std@@V12@@std@@@2@@1@@Z
	??$_Try_emplace@V?$basic_string@DU?$char_traits@D@std@@V?$allocator@D@2@@std@@$$V@?$map@V?$basic_string@DU?$char_traits@D@std@@V?$allocator@D@2@@std@@V12@U?$less@V?$basic_string@DU?$char_traits@D@std@@V?$allocator@D@2@@std@@@2@V?$allocator@U?$pair@$$CBV?$basic_string@DU?$char_traits@D@std@@V?$allocator@D@2@@std@@V12@@std@@@2@@std@@QEAA?AU?$pair@V?$_Tree_iterator@V?$_Tree_val@U?$_Tree_simple_types@U?$pair@$$CBV?$basic_string@DU?$char_traits@D@std@@V?$allocator@D@2@@std@@V12@@std@@@std@@@std@@@std@@_N@1@$$QEAV?$basic_string@DU?$char_traits@D@std@@V?$allocator@D@2@@1@@Z
	??$_Ucopy@PEAU?$Point_@V?$allocator@X@std@@@geometry_msgs@@@?$vector@U?$Point_@V?$allocator@X@std@@@geometry_msgs@@V?$allocator@U?$Point_@V?$allocator@X@std@@@geometry_msgs@@@std@@@std@@AEAAPEAU?$Point_@V?$allocator@X@std@@@geometry_msgs@@PEAU23@00@Z
	??$_Uninitialized_copy@PEAU?$Point_@V?$allocator@X@std@@@geometry_msgs@@PEAU12@V?$allocator@U?$Point_@V?$allocator@X@std@@@geometry_msgs@@@std@@@std@@YAPEAU?$Point_@V?$allocator@X@std@@@geometry_msgs@@QEAU12@0PEAU12@AEAV?$allocator@U?$Point_@V?$allocator@X@std@@@geometry_msgs@@@0@@Z
	??$_Uninitialized_copy@PEAV?$basic_string@DU?$char_traits@D@std@@V?$allocator@D@2@@std@@PEAV12@V?$allocator@V?$basic_string@DU?$char_traits@D@std@@V?$allocator@D@2@@std@@@2@@std@@YAPEAV?$basic_string@DU?$char_traits@D@std@@V?$allocator@D@2@@0@QEAV10@0PEAV10@AEAV?$allocator@V?$basic_string@DU?$char_traits@D@std@@V?$allocator@D@2@@std@@@0@@Z
	??$_Uninitialized_copy@PEBU?$pair@W4FunctionType@detail@data@matlab@@V?$basic_string@DU?$char_traits@D@std@@V?$allocator@D@2@@std@@@std@@PEAU12@V?$allocator@U?$pair@W4FunctionType@detail@data@matlab@@V?$basic_string@DU?$char_traits@D@std@@V?$allocator@D@2@@std@@@std@@@2@@std@@YAPEAU?$pair@W4FunctionType@detail@data@matlab@@V?$basic_string@DU?$char_traits@D@std@@V?$allocator@D@2@@std@@@0@QEBU10@0PEAU10@AEAV?$allocator@U?$pair@W4FunctionType@detail@data@matlab@@V?$basic_string@DU?$char_traits@D@std@@V?$allocator@D@2@@std@@@std@@@0@@Z
	??$_Uninitialized_copy@PEBV?$basic_string@DU?$char_traits@D@std@@V?$allocator@D@2@@std@@PEAV12@V?$allocator@V?$basic_string@DU?$char_traits@D@std@@V?$allocator@D@2@@std@@@2@@std@@YAPEAV?$basic_string@DU?$char_traits@D@std@@V?$allocator@D@2@@0@QEBV10@0PEAV10@AEAV?$allocator@V?$basic_string@DU?$char_traits@D@std@@V?$allocator@D@2@@std@@@0@@Z
	??$_Uninitialized_copy@PEBVArray@data@matlab@@PEAV123@V?$allocator@VArray@data@matlab@@@std@@@std@@YAPEAVArray@data@matlab@@QEBV123@0PEAV123@AEAV?$allocator@VArray@data@matlab@@@0@@Z
	??$_Uninitialized_copy@PEB_KPEA_KV?$allocator@_K@std@@@std@@YAPEA_KQEB_K0PEA_KAEAV?$allocator@_K@0@@Z
	??$_Uninitialized_copy_al_unchecked@PEAU?$Point_@V?$allocator@X@std@@@geometry_msgs@@PEAU12@V?$allocator@U?$Point_@V?$allocator@X@std@@@geometry_msgs@@@std@@@std@@YAPEAU?$Point_@V?$allocator@X@std@@@geometry_msgs@@PEAU12@QEAU12@1AEAV?$allocator@U?$Point_@V?$allocator@X@std@@@geometry_msgs@@@0@U_General_ptr_iterator_tag@0@U_Unused_parameter@0@@Z
	??$_Uninitialized_copy_al_unchecked@PEAV?$basic_string@DU?$char_traits@D@std@@V?$allocator@D@2@@std@@PEAV12@V?$allocator@V?$basic_string@DU?$char_traits@D@std@@V?$allocator@D@2@@std@@@2@@std@@YAPEAV?$basic_string@DU?$char_traits@D@std@@V?$allocator@D@2@@0@PEAV10@QEAV10@1AEAV?$allocator@V?$basic_string@DU?$char_traits@D@std@@V?$allocator@D@2@@std@@@0@U_General_ptr_iterator_tag@0@U_Unused_parameter@0@@Z
	??$_Uninitialized_copy_al_unchecked@PEBU?$pair@W4FunctionType@detail@data@matlab@@V?$basic_string@DU?$char_traits@D@std@@V?$allocator@D@2@@std@@@std@@PEAU12@V?$allocator@U?$pair@W4FunctionType@detail@data@matlab@@V?$basic_string@DU?$char_traits@D@std@@V?$allocator@D@2@@std@@@std@@@2@@std@@YAPEAU?$pair@W4FunctionType@detail@data@matlab@@V?$basic_string@DU?$char_traits@D@std@@V?$allocator@D@2@@std@@@0@PEBU10@QEBU10@QEAU10@AEAV?$allocator@U?$pair@W4FunctionType@detail@data@matlab@@V?$basic_string@DU?$char_traits@D@std@@V?$allocator@D@2@@std@@@std@@@0@U_General_ptr_iterator_tag@0@U_Unused_parameter@0@@Z
	??$_Uninitialized_copy_al_unchecked@PEBV?$basic_string@DU?$char_traits@D@std@@V?$allocator@D@2@@std@@PEAV12@V?$allocator@V?$basic_string@DU?$char_traits@D@std@@V?$allocator@D@2@@std@@@2@@std@@YAPEAV?$basic_string@DU?$char_traits@D@std@@V?$allocator@D@2@@0@PEBV10@QEBV10@QEAV10@AEAV?$allocator@V?$basic_string@DU?$char_traits@D@std@@V?$allocator@D@2@@std@@@0@U_General_ptr_iterator_tag@0@U_Unused_parameter@0@@Z
	??$_Uninitialized_copy_al_unchecked@PEBVArray@data@matlab@@PEAV123@V?$allocator@VArray@data@matlab@@@std@@@std@@YAPEAVArray@data@matlab@@PEBV123@QEBV123@QEAV123@AEAV?$allocator@VArray@data@matlab@@@0@U_General_ptr_iterator_tag@0@U_Unused_parameter@0@@Z
	??$_Uninitialized_move@PEAU?$Point_@V?$allocator@X@std@@@geometry_msgs@@PEAU12@V?$allocator@U?$Point_@V?$allocator@X@std@@@geometry_msgs@@@std@@@std@@YAPEAU?$Point_@V?$allocator@X@std@@@geometry_msgs@@QEAU12@0PEAU12@AEAV?$allocator@U?$Point_@V?$allocator@X@std@@@geometry_msgs@@@0@@Z
	??$_Uninitialized_move@PEAV?$basic_string@DU?$char_traits@D@std@@V?$allocator@D@2@@std@@PEAV12@V?$allocator@V?$basic_string@DU?$char_traits@D@std@@V?$allocator@D@2@@std@@@2@@std@@YAPEAV?$basic_string@DU?$char_traits@D@std@@V?$allocator@D@2@@0@QEAV10@0PEAV10@AEAV?$allocator@V?$basic_string@DU?$char_traits@D@std@@V?$allocator@D@2@@std@@@0@@Z
	??$_Uninitialized_move_al_unchecked@PEAU?$Point_@V?$allocator@X@std@@@geometry_msgs@@PEAU12@V?$allocator@U?$Point_@V?$allocator@X@std@@@geometry_msgs@@@std@@@std@@YAPEAU?$Point_@V?$allocator@X@std@@@geometry_msgs@@PEAU12@QEAU12@1AEAV?$allocator@U?$Point_@V?$allocator@X@std@@@geometry_msgs@@@0@U_General_ptr_iterator_tag@0@U_Unused_parameter@0@@Z
	??$_Uninitialized_move_al_unchecked@PEAV?$basic_string@DU?$char_traits@D@std@@V?$allocator@D@2@@std@@PEAV12@V?$allocator@V?$basic_string@DU?$char_traits@D@std@@V?$allocator@D@2@@std@@@2@@std@@YAPEAV?$basic_string@DU?$char_traits@D@std@@V?$allocator@D@2@@0@PEAV10@QEAV10@1AEAV?$allocator@V?$basic_string@DU?$char_traits@D@std@@V?$allocator@D@2@@std@@@0@U_General_ptr_iterator_tag@0@U_Unused_parameter@0@@Z
	??$_Uninitialized_value_construct_n1@PEAU?$Point_@V?$allocator@X@std@@@geometry_msgs@@_KV?$allocator@U?$Point_@V?$allocator@X@std@@@geometry_msgs@@@std@@@std@@YAPEAU?$Point_@V?$allocator@X@std@@@geometry_msgs@@QEAU12@_KAEAV?$allocator@U?$Point_@V?$allocator@X@std@@@geometry_msgs@@@0@U?$integral_constant@_N$0A@@0@@Z
	??$advertise@U?$FlightPlan_@V?$allocator@X@std@@@siam_main@@@NodeHandle@ros@@QEAA?AVPublisher@1@AEBV?$basic_string@DU?$char_traits@D@std@@V?$allocator@D@2@@std@@I_N@Z
	??$allInOne@UIStream@serialization@ros@@AEAU?$FlightPlan_@V?$allocator@X@std@@@siam_main@@@?$Serializer@U?$FlightPlan_@V?$allocator@X@std@@@siam_main@@@serialization@ros@@SAXAEAUIStream@12@AEAU?$FlightPlan_@V?$allocator@X@std@@@siam_main@@@Z
	??$allInOne@ULStream@serialization@ros@@AEBU?$FlightPlan_@V?$allocator@X@std@@@siam_main@@@?$Serializer@U?$FlightPlan_@V?$allocator@X@std@@@siam_main@@@serialization@ros@@SAXAEAULStream@12@AEBU?$FlightPlan_@V?$allocator@X@std@@@siam_main@@@Z
	??$allInOne@UOStream@serialization@ros@@AEBU?$FlightPlan_@V?$allocator@X@std@@@siam_main@@@?$Serializer@U?$FlightPlan_@V?$allocator@X@std@@@siam_main@@@serialization@ros@@SAXAEAUOStream@12@AEBU?$FlightPlan_@V?$allocator@X@std@@@siam_main@@@Z
	??$assign_to@U?$DefaultMessageCreator@U?$FlightPlan_@V?$allocator@X@std@@@siam_main@@@ros@@@?$function0@V?$shared_ptr@U?$FlightPlan_@V?$allocator@X@std@@@siam_main@@@mwboost@@@mwboost@@AEAAXU?$DefaultMessageCreator@U?$FlightPlan_@V?$allocator@X@std@@@siam_main@@@ros@@@Z
	??$assign_to@V?$bind_t@VSerializedMessage@ros@@P6A?AV12@AEBU?$FlightPlan_@V?$allocator@X@std@@@siam_main@@@ZV?$list1@V?$reference_wrapper@U?$FlightPlan_@V?$allocator@X@std@@@siam_main@@@mwboost@@@_bi@mwboost@@@_bi@mwboost@@@?$function0@VSerializedMessage@ros@@@mwboost@@AEAAXV?$bind_t@VSerializedMessage@ros@@P6A?AV12@AEBU?$FlightPlan_@V?$allocator@X@std@@@siam_main@@@ZV?$list1@V?$reference_wrapper@U?$FlightPlan_@V?$allocator@X@std@@@siam_main@@@mwboost@@@_bi@mwboost@@@_bi@1@@Z
	??$assign_to@V?$bind_t@XV?$mf1@XV?$ROSSubscriberImpl@U?$FlightPlan_@V?$allocator@X@std@@@siam_main@@V?$shared_ptr@$$CBU?$FlightPlan_@V?$allocator@X@std@@@siam_main@@@mwboost@@Vsiam_main_msg_FlightPlan_common@@@@AEBV?$shared_ptr@$$CBU?$FlightPlan_@V?$allocator@X@std@@@siam_main@@@mwboost@@@_mfi@mwboost@@V?$list2@V?$value@PEAV?$ROSSubscriberImpl@U?$FlightPlan_@V?$allocator@X@std@@@siam_main@@V?$shared_ptr@$$CBU?$FlightPlan_@V?$allocator@X@std@@@siam_main@@@mwboost@@Vsiam_main_msg_FlightPlan_common@@@@@_bi@mwboost@@U?$arg@$00@3@@_bi@3@@_bi@mwboost@@@?$function1@XAEBV?$shared_ptr@$$CBU?$FlightPlan_@V?$allocator@X@std@@@siam_main@@@mwboost@@@mwboost@@AEAAXV?$bind_t@XV?$mf1@XV?$ROSSubscriberImpl@U?$FlightPlan_@V?$allocator@X@std@@@siam_main@@V?$shared_ptr@$$CBU?$FlightPlan_@V?$allocator@X@std@@@siam_main@@@mwboost@@Vsiam_main_msg_FlightPlan_common@@@@AEBV?$shared_ptr@$$CBU?$FlightPlan_@V?$allocator@X@std@@@siam_main@@@mwboost@@@_mfi@mwboost@@V?$list2@V?$value@PEAV?$ROSSubscriberImpl@U?$FlightPlan_@V?$allocator@X@std@@@siam_main@@V?$shared_ptr@$$CBU?$FlightPlan_@V?$allocator@X@std@@@siam_main@@@mwboost@@Vsiam_main_msg_FlightPlan_common@@@@@_bi@mwboost@@U?$arg@$00@3@@_bi@3@@_bi@1@@Z
	??$assign_to@V?$function@$$A6AXAEBV?$shared_ptr@$$CBU?$FlightPlan_@V?$allocator@X@std@@@siam_main@@@mwboost@@@Z@mwboost@@@?$basic_vtable1@XV?$shared_ptr@$$CBU?$FlightPlan_@V?$allocator@X@std@@@siam_main@@@mwboost@@@function@detail@mwboost@@AEBA_NV?$function@$$A6AXAEBV?$shared_ptr@$$CBU?$FlightPlan_@V?$allocator@X@std@@@siam_main@@@mwboost@@@Z@3@AEATfunction_buffer@123@Ufunction_obj_tag@123@@Z
	??$assign_to@V?$function@$$A6AXAEBV?$shared_ptr@$$CBU?$FlightPlan_@V?$allocator@X@std@@@siam_main@@@mwboost@@@Z@mwboost@@@?$function1@XV?$shared_ptr@$$CBU?$FlightPlan_@V?$allocator@X@std@@@siam_main@@@mwboost@@@mwboost@@AEAAXV?$function@$$A6AXAEBV?$shared_ptr@$$CBU?$FlightPlan_@V?$allocator@X@std@@@siam_main@@@mwboost@@@Z@1@@Z
	??$bind@VSerializedMessage@ros@@AEBU?$FlightPlan_@V?$allocator@X@std@@@siam_main@@V?$reference_wrapper@U?$FlightPlan_@V?$allocator@X@std@@@siam_main@@@mwboost@@@mwboost@@YA?AV?$bind_t@VSerializedMessage@ros@@P6A?AV12@AEBU?$FlightPlan_@V?$allocator@X@std@@@siam_main@@@ZV?$list1@V?$reference_wrapper@U?$FlightPlan_@V?$allocator@X@std@@@siam_main@@@mwboost@@@_bi@mwboost@@@_bi@0@P6A?AVSerializedMessage@ros@@AEBU?$FlightPlan_@V?$allocator@X@std@@@siam_main@@@ZV?$reference_wrapper@U?$FlightPlan_@V?$allocator@X@std@@@siam_main@@@0@@Z
	??$bind@XV?$ROSSubscriberImpl@U?$FlightPlan_@V?$allocator@X@std@@@siam_main@@V?$shared_ptr@$$CBU?$FlightPlan_@V?$allocator@X@std@@@siam_main@@@mwboost@@Vsiam_main_msg_FlightPlan_common@@@@AEBV?$shared_ptr@$$CBU?$FlightPlan_@V?$allocator@X@std@@@siam_main@@@mwboost@@PEAV1@U?$arg@$00@3@@mwboost@@YA?AV?$bind_t@XV?$mf1@XV?$ROSSubscriberImpl@U?$FlightPlan_@V?$allocator@X@std@@@siam_main@@V?$shared_ptr@$$CBU?$FlightPlan_@V?$allocator@X@std@@@siam_main@@@mwboost@@Vsiam_main_msg_FlightPlan_common@@@@AEBV?$shared_ptr@$$CBU?$FlightPlan_@V?$allocator@X@std@@@siam_main@@@mwboost@@@_mfi@mwboost@@V?$list2@V?$value@PEAV?$ROSSubscriberImpl@U?$FlightPlan_@V?$allocator@X@std@@@siam_main@@V?$shared_ptr@$$CBU?$FlightPlan_@V?$allocator@X@std@@@siam_main@@@mwboost@@Vsiam_main_msg_FlightPlan_common@@@@@_bi@mwboost@@U?$arg@$00@3@@_bi@3@@_bi@0@P8?$ROSSubscriberImpl@U?$FlightPlan_@V?$allocator@X@std@@@siam_main@@V?$shared_ptr@$$CBU?$FlightPlan_@V?$allocator@X@std@@@siam_main@@@mwboost@@Vsiam_main_msg_FlightPlan_common@@@@EAAXAEBV?$shared_ptr@$$CBU?$FlightPlan_@V?$allocator@X@std@@@siam_main@@@0@@ZPEAV3@U?$arg@$00@0@@Z
	??$bind@XVClassLoader@ros1_class_loader@@PEAV?$MATLABROSMsgInterface@U?$Point_@V?$allocator@X@std@@@geometry_msgs@@@@PEAV12@U?$arg@$00@mwboost@@@mwboost@@YA?AV?$bind_t@XV?$mf1@XVClassLoader@ros1_class_loader@@PEAV?$MATLABROSMsgInterface@U?$Point_@V?$allocator@X@std@@@geometry_msgs@@@@@_mfi@mwboost@@V?$list2@V?$value@PEAVClassLoader@ros1_class_loader@@@_bi@mwboost@@U?$arg@$00@3@@_bi@3@@_bi@0@P8ClassLoader@ros1_class_loader@@EAAXPEAV?$MATLABROSMsgInterface@U?$Point_@V?$allocator@X@std@@@geometry_msgs@@@@@ZPEAV34@U?$arg@$00@0@@Z
	??$checked_delete@V?$clone_impl@Ubad_alloc_@exception_detail@mwboost@@@exception_detail@mwboost@@@mwboost@@YAXPEAV?$clone_impl@Ubad_alloc_@exception_detail@mwboost@@@exception_detail@0@@Z
	??$checked_delete@V?$clone_impl@Ubad_exception_@exception_detail@mwboost@@@exception_detail@mwboost@@@mwboost@@YAXPEAV?$clone_impl@Ubad_exception_@exception_detail@mwboost@@@exception_detail@0@@Z
	??$const_pointer_cast@U?$FlightPlan_@V?$allocator@X@std@@@siam_main@@$$CBU12@@mwboost@@YA?AV?$shared_ptr@U?$FlightPlan_@V?$allocator@X@std@@@siam_main@@@0@$$QEAV?$shared_ptr@$$CBU?$FlightPlan_@V?$allocator@X@std@@@siam_main@@@0@@Z
	??$const_pointer_cast@U?$FlightPlan_@V?$allocator@X@std@@@siam_main@@$$CBU12@@mwboost@@YA?AV?$shared_ptr@U?$FlightPlan_@V?$allocator@X@std@@@siam_main@@@0@AEBV?$shared_ptr@$$CBU?$FlightPlan_@V?$allocator@X@std@@@siam_main@@@0@@Z
	??$const_pointer_cast@X$$CBX@mwboost@@YA?AV?$shared_ptr@X@0@AEBV?$shared_ptr@$$CBX@0@@Z
	??$construct@U?$pair@$$CBV?$basic_string@DU?$char_traits@D@std@@V?$allocator@D@2@@std@@V?$shared_ptr@VMATLABROSMsgInterfaceBase@@@mwboost@@@std@@AEBUpiecewise_construct_t@2@V?$tuple@AEBV?$basic_string@DU?$char_traits@D@std@@V?$allocator@D@2@@std@@@2@V?$tuple@$$V@2@@?$_Default_allocator_traits@V?$allocator@U?$_Tree_node@U?$pair@$$CBV?$basic_string@DU?$char_traits@D@std@@V?$allocator@D@2@@std@@V?$shared_ptr@VMATLABROSMsgInterfaceBase@@@mwboost@@@std@@PEAX@std@@@std@@@std@@SAXAEAV?$allocator@U?$_Tree_node@U?$pair@$$CBV?$basic_string@DU?$char_traits@D@std@@V?$allocator@D@2@@std@@V?$shared_ptr@VMATLABROSMsgInterfaceBase@@@mwboost@@@std@@PEAX@std@@@1@QEAU?$pair@$$CBV?$basic_string@DU?$char_traits@D@std@@V?$allocator@D@2@@std@@V?$shared_ptr@VMATLABROSMsgInterfaceBase@@@mwboost@@@1@AEBUpiecewise_construct_t@1@$$QEAV?$tuple@AEBV?$basic_string@DU?$char_traits@D@std@@V?$allocator@D@2@@std@@@1@$$QEAV?$tuple@$$V@1@@Z
	??$construct@U?$pair@$$CBV?$map@V?$basic_string@DU?$char_traits@D@std@@V?$allocator@D@2@@std@@V12@U?$less@V?$basic_string@DU?$char_traits@D@std@@V?$allocator@D@2@@std@@@2@V?$allocator@U?$pair@$$CBV?$basic_string@DU?$char_traits@D@std@@V?$allocator@D@2@@std@@V12@@std@@@2@@std@@I@std@@AEBUpiecewise_construct_t@2@V?$tuple@AEBV?$map@V?$basic_string@DU?$char_traits@D@std@@V?$allocator@D@2@@std@@V12@U?$less@V?$basic_string@DU?$char_traits@D@std@@V?$allocator@D@2@@std@@@2@V?$allocator@U?$pair@$$CBV?$basic_string@DU?$char_traits@D@std@@V?$allocator@D@2@@std@@V12@@std@@@2@@std@@@2@V?$tuple@$$V@2@@?$_Default_allocator_traits@V?$allocator@U?$_Tree_node@U?$pair@$$CBV?$map@V?$basic_string@DU?$char_traits@D@std@@V?$allocator@D@2@@std@@V12@U?$less@V?$basic_string@DU?$char_traits@D@std@@V?$allocator@D@2@@std@@@2@V?$allocator@U?$pair@$$CBV?$basic_string@DU?$char_traits@D@std@@V?$allocator@D@2@@std@@V12@@std@@@2@@std@@I@std@@PEAX@std@@@std@@@std@@SAXAEAV?$allocator@U?$_Tree_node@U?$pair@$$CBV?$map@V?$basic_string@DU?$char_traits@D@std@@V?$allocator@D@2@@std@@V12@U?$less@V?$basic_string@DU?$char_traits@D@std@@V?$allocator@D@2@@std@@@2@V?$allocator@U?$pair@$$CBV?$basic_string@DU?$char_traits@D@std@@V?$allocator@D@2@@std@@V12@@std@@@2@@std@@I@std@@PEAX@std@@@1@QEAU?$pair@$$CBV?$map@V?$basic_string@DU?$char_traits@D@std@@V?$allocator@D@2@@std@@V12@U?$less@V?$basic_string@DU?$char_traits@D@std@@V?$allocator@D@2@@std@@@2@V?$allocator@U?$pair@$$CBV?$basic_string@DU?$char_traits@D@std@@V?$allocator@D@2@@std@@V12@@std@@@2@@std@@I@1@AEBUpiecewise_construct_t@1@$$QEAV?$tuple@AEBV?$map@V?$basic_string@DU?$char_traits@D@std@@V?$allocator@D@2@@std@@V12@U?$less@V?$basic_string@DU?$char_traits@D@std@@V?$allocator@D@2@@std@@@2@V?$allocator@U?$pair@$$CBV?$basic_string@DU?$char_traits@D@std@@V?$allocator@D@2@@std@@V12@@std@@@2@@std@@@1@$$QEAV?$tuple@$$V@1@@Z
	??$copyMessageIfNecessary@$$CBU?$FlightPlan_@V?$allocator@X@std@@@siam_main@@@?$MessageEvent@$$CBU?$FlightPlan_@V?$allocator@X@std@@@siam_main@@@ros@@AEBA?AV?$shared_ptr@$$CBU?$FlightPlan_@V?$allocator@X@std@@@siam_main@@@mwboost@@XZ
	??$copyMessageIfNecessary@$$CBX@?$MessageEvent@$$CBX@ros@@AEBA?AV?$shared_ptr@$$CBX@mwboost@@XZ
	??$createInstance@V?$MATLABROSMsgInterface@U?$Point_@V?$allocator@X@std@@@geometry_msgs@@@@@ClassLoader@ros1_class_loader@@QEAA?AV?$shared_ptr@V?$MATLABROSMsgInterface@U?$Point_@V?$allocator@X@std@@@geometry_msgs@@@@@mwboost@@AEBV?$basic_string@DU?$char_traits@D@std@@V?$allocator@D@2@@std@@@Z
	??$createInstance@V?$MATLABROSMsgInterface@U?$Point_@V?$allocator@X@std@@@geometry_msgs@@@@@MultiLibraryClassLoader@ros1_class_loader@@QEAA?AV?$shared_ptr@V?$MATLABROSMsgInterface@U?$Point_@V?$allocator@X@std@@@geometry_msgs@@@@@mwboost@@AEBV?$basic_string@DU?$char_traits@D@std@@V?$allocator@D@2@@std@@@Z
	??$createInstance@V?$MATLABROSMsgInterface@U?$Point_@V?$allocator@X@std@@@geometry_msgs@@@@@impl@ros1_class_loader@@YAPEAV?$MATLABROSMsgInterface@U?$Point_@V?$allocator@X@std@@@geometry_msgs@@@@AEBV?$basic_string@DU?$char_traits@D@std@@V?$allocator@D@2@@std@@PEAVClassLoader@1@@Z
	??$createObj@V?$ArrayElementTypedRef@VArray@data@matlab@@$0A@@data@matlab@@VReferenceImpl@detail@23@@Access@detail@data@matlab@@SA?AV?$ArrayElementTypedRef@VArray@data@matlab@@$0A@@23@V?$shared_ptr@VReferenceImpl@detail@data@matlab@@@std@@@Z
	??$createObj@VStruct@data@matlab@@VReferenceImpl@detail@23@@Access@detail@data@matlab@@SA?AVStruct@23@V?$shared_ptr@VReferenceImpl@detail@data@matlab@@@std@@@Z
	??$createRawInstance@V?$MATLABROSMsgInterface@U?$Point_@V?$allocator@X@std@@@geometry_msgs@@@@@ClassLoader@ros1_class_loader@@AEAAPEAV?$MATLABROSMsgInterface@U?$Point_@V?$allocator@X@std@@@geometry_msgs@@@@AEBV?$basic_string@DU?$char_traits@D@std@@V?$allocator@D@2@@std@@_N@Z
	??$createScalar@C@ArrayFactory@data@matlab@@QEAA?AV?$TypedArray@C@12@C@Z
	??$createScalar@G@ArrayFactory@data@matlab@@QEAA?AV?$TypedArray@G@12@G@Z
	??$createScalar@_K@ArrayFactory@data@matlab@@QEAA?AV?$TypedArray@_K@12@_K@Z
	??$createTempRef@VStruct@data@matlab@@$00@?$TypedIterator@$$CBVStruct@data@matlab@@@data@matlab@@AEAA?AVStruct@12@V?$shared_ptr@VIteratorImpl@detail@data@matlab@@@std@@@Z
	??$doWrite@U?$FlightPlan_@V?$allocator@X@std@@@siam_main@@@Bag@rosbag@@AEAAXAEBV?$basic_string@DU?$char_traits@D@std@@V?$allocator@D@2@@std@@AEBVTime@ros@@AEBU?$FlightPlan_@V?$allocator@X@std@@@siam_main@@AEBV?$shared_ptr@V?$map@V?$basic_string@DU?$char_traits@D@std@@V?$allocator@D@2@@std@@V12@U?$less@V?$basic_string@DU?$char_traits@D@std@@V?$allocator@D@2@@std@@@2@V?$allocator@U?$pair@$$CBV?$basic_string@DU?$char_traits@D@std@@V?$allocator@D@2@@std@@V12@@std@@@2@@std@@@mwboost@@@Z
	??$emplace_back@AEBU?$Point_@V?$allocator@X@std@@@geometry_msgs@@@?$vector@U?$Point_@V?$allocator@X@std@@@geometry_msgs@@V?$allocator@U?$Point_@V?$allocator@X@std@@@geometry_msgs@@@std@@@std@@QEAAXAEBU?$Point_@V?$allocator@X@std@@@geometry_msgs@@@Z
	??$emplace_back@AEBV?$basic_string@DU?$char_traits@D@std@@V?$allocator@D@2@@std@@@?$vector@V?$basic_string@DU?$char_traits@D@std@@V?$allocator@D@2@@std@@V?$allocator@V?$basic_string@DU?$char_traits@D@std@@V?$allocator@D@2@@std@@@2@@std@@QEAAXAEBV?$basic_string@DU?$char_traits@D@std@@V?$allocator@D@2@@1@@Z
	??$find@V?$_Vector_iterator@V?$_Vector_val@U?$_Simple_types@V?$basic_string@DU?$char_traits@D@std@@V?$allocator@D@2@@std@@@std@@@std@@@std@@V?$basic_string@DU?$char_traits@D@std@@V?$allocator@D@2@@2@@std@@YA?AV?$_Vector_iterator@V?$_Vector_val@U?$_Simple_types@V?$basic_string@DU?$char_traits@D@std@@V?$allocator@D@2@@std@@@std@@@std@@@0@V10@V10@AEBV?$basic_string@DU?$char_traits@D@std@@V?$allocator@D@2@@0@@Z
	??$find_if@V?$_String_const_iterator@V?$_String_val@U?$_Simple_types@D@std@@@std@@@std@@V<lambda_9af1022c29514f862ee55749a69d7ee5>@@@std@@YA?AV?$_String_const_iterator@V?$_String_val@U?$_Simple_types@D@std@@@std@@@0@V10@V10@V<lambda_9af1022c29514f862ee55749a69d7ee5>@@@Z
	??$getAvailableClasses@V?$MATLABROSMsgInterface@U?$Point_@V?$allocator@X@std@@@geometry_msgs@@@@@impl@ros1_class_loader@@YA?AV?$vector@V?$basic_string@DU?$char_traits@D@std@@V?$allocator@D@2@@std@@V?$allocator@V?$basic_string@DU?$char_traits@D@std@@V?$allocator@D@2@@std@@@2@@std@@PEAVClassLoader@1@@Z
	??$getClassLoaderForClass@V?$MATLABROSMsgInterface@U?$Point_@V?$allocator@X@std@@@geometry_msgs@@@@@MultiLibraryClassLoader@ros1_class_loader@@AEAAPEAVClassLoader@1@AEBV?$basic_string@DU?$char_traits@D@std@@V?$allocator@D@2@@std@@@Z
	??$getCommonObject@U?$Point_@V?$allocator@X@std@@@geometry_msgs@@@?$MATLABROSMsgInterface@U?$FlightPlan_@V?$allocator@X@std@@@siam_main@@@@QEAAPEAV?$MATLABROSMsgInterface@U?$Point_@V?$allocator@X@std@@@geometry_msgs@@@@AEBV?$basic_string@DU?$char_traits@D@std@@V?$allocator@D@2@@std@@PEAVMultiLibraryClassLoader@ros1_class_loader@@@Z
	??$getElement@C@detail@data@matlab@@YAAEACV?$shared_ptr@VReferenceImpl@detail@data@matlab@@@std@@@Z
	??$getElement@G@detail@data@matlab@@YAAEAGV?$shared_ptr@VReferenceImpl@detail@data@matlab@@@std@@@Z
	??$getElement@VStruct@data@matlab@@@detail@data@matlab@@YA?AVStruct@12@V?$shared_ptr@VReferenceImpl@detail@data@matlab@@@std@@@Z
	??$getElement@_K@detail@data@matlab@@YAAEA_KV?$shared_ptr@VReferenceImpl@detail@data@matlab@@@std@@@Z
	??$getFactoryMapForBaseClass@V?$MATLABROSMsgInterface@U?$FlightPlan_@V?$allocator@X@std@@@siam_main@@@@@impl@ros1_class_loader@@YAAEAV?$map@V?$basic_string@DU?$char_traits@D@std@@V?$allocator@D@2@@std@@PEAVAbstractMetaObjectBase@impl@ros1_class_loader@@U?$less@V?$basic_string@DU?$char_traits@D@std@@V?$allocator@D@2@@std@@@2@V?$allocator@U?$pair@$$CBV?$basic_string@DU?$char_traits@D@std@@V?$allocator@D@2@@std@@PEAVAbstractMetaObjectBase@impl@ros1_class_loader@@@std@@@2@@std@@XZ
	??$getFactoryMapForBaseClass@V?$MATLABROSMsgInterface@U?$Point_@V?$allocator@X@std@@@geometry_msgs@@@@@impl@ros1_class_loader@@YAAEAV?$map@V?$basic_string@DU?$char_traits@D@std@@V?$allocator@D@2@@std@@PEAVAbstractMetaObjectBase@impl@ros1_class_loader@@U?$less@V?$basic_string@DU?$char_traits@D@std@@V?$allocator@D@2@@std@@@2@V?$allocator@U?$pair@$$CBV?$basic_string@DU?$char_traits@D@std@@V?$allocator@D@2@@std@@PEAVAbstractMetaObjectBase@impl@ros1_class_loader@@@std@@@2@@std@@XZ
	??$getFactoryMapForBaseClass@VROSMsgElementInterfaceFactory@@@impl@ros1_class_loader@@YAAEAV?$map@V?$basic_string@DU?$char_traits@D@std@@V?$allocator@D@2@@std@@PEAVAbstractMetaObjectBase@impl@ros1_class_loader@@U?$less@V?$basic_string@DU?$char_traits@D@std@@V?$allocator@D@2@@std@@@2@V?$allocator@U?$pair@$$CBV?$basic_string@DU?$char_traits@D@std@@V?$allocator@D@2@@std@@PEAVAbstractMetaObjectBase@impl@ros1_class_loader@@@std@@@2@@std@@XZ
	??$getRef@$$CBVStruct@data@matlab@@@?$TypedIterator@$$CBVStruct@data@matlab@@@data@matlab@@AEBA?AVStruct@12@XZ
	??$get_local_deleter@U?$checked_array_deleter@E@mwboost@@@detail@mwboost@@YAPEAU?$checked_array_deleter@E@1@PEAU21@@Z
	??$get_local_deleter@V?$bind_t@XV?$mf1@XVClassLoader@ros1_class_loader@@PEAV?$MATLABROSMsgInterface@U?$Point_@V?$allocator@X@std@@@geometry_msgs@@@@@_mfi@mwboost@@V?$list2@V?$value@PEAVClassLoader@ros1_class_loader@@@_bi@mwboost@@U?$arg@$00@3@@_bi@3@@_bi@mwboost@@@detail@mwboost@@YAPEAV?$bind_t@XV?$mf1@XVClassLoader@ros1_class_loader@@PEAV?$MATLABROSMsgInterface@U?$Point_@V?$allocator@X@std@@@geometry_msgs@@@@@_mfi@mwboost@@V?$list2@V?$value@PEAVClassLoader@ros1_class_loader@@@_bi@mwboost@@U?$arg@$00@3@@_bi@3@@_bi@1@PEAV231@@Z
	??$get_local_deleter@V?$sp_ms_deleter@U?$FlightPlan_@V?$allocator@X@std@@@siam_main@@@detail@mwboost@@@detail@mwboost@@YAPEAV?$sp_ms_deleter@U?$FlightPlan_@V?$allocator@X@std@@@siam_main@@@01@PEAV201@@Z
	??$get_local_deleter@V?$sp_ms_deleter@V?$SubscriptionCallbackHelperT@AEBV?$shared_ptr@$$CBU?$FlightPlan_@V?$allocator@X@std@@@siam_main@@@mwboost@@X@ros@@@detail@mwboost@@@detail@mwboost@@YAPEAV?$sp_ms_deleter@V?$SubscriptionCallbackHelperT@AEBV?$shared_ptr@$$CBU?$FlightPlan_@V?$allocator@X@std@@@siam_main@@@mwboost@@X@ros@@@01@PEAV201@@Z
	??$get_local_deleter@V?$sp_ms_deleter@V?$map@V?$basic_string@DU?$char_traits@D@std@@V?$allocator@D@2@@std@@V12@U?$less@V?$basic_string@DU?$char_traits@D@std@@V?$allocator@D@2@@std@@@2@V?$allocator@U?$pair@$$CBV?$basic_string@DU?$char_traits@D@std@@V?$allocator@D@2@@std@@V12@@std@@@2@@std@@@detail@mwboost@@@detail@mwboost@@YAPEAV?$sp_ms_deleter@V?$map@V?$basic_string@DU?$char_traits@D@std@@V?$allocator@D@2@@std@@V12@U?$less@V?$basic_string@DU?$char_traits@D@std@@V?$allocator@D@2@@std@@@2@V?$allocator@U?$pair@$$CBV?$basic_string@DU?$char_traits@D@std@@V?$allocator@D@2@@std@@V12@@std@@@2@@std@@@01@PEAV201@@Z
	??$get_static_exception_object@Ubad_alloc_@exception_detail@mwboost@@@exception_detail@mwboost@@YA?AVexception_ptr@1@XZ
	??$get_static_exception_object@Ubad_exception_@exception_detail@mwboost@@@exception_detail@mwboost@@YA?AVexception_ptr@1@XZ
	??$init@U?$FlightPlan_@V?$allocator@X@std@@@siam_main@@@AdvertiseOptions@ros@@QEAAXAEBV?$basic_string@DU?$char_traits@D@std@@V?$allocator@D@2@@std@@IAEBV?$function@$$A6AXAEBVSingleSubscriberPublisher@ros@@@Z@mwboost@@1@Z
	??$init@U?$FlightPlan_@V?$allocator@X@std@@@siam_main@@@SubscribeOptions@ros@@QEAAXAEBV?$basic_string@DU?$char_traits@D@std@@V?$allocator@D@2@@std@@IAEBV?$function@$$A6AXAEBV?$shared_ptr@$$CBU?$FlightPlan_@V?$allocator@X@std@@@siam_main@@@mwboost@@@Z@mwboost@@AEBV?$function@$$A6A?AV?$shared_ptr@U?$FlightPlan_@V?$allocator@X@std@@@siam_main@@@mwboost@@XZ@5@@Z
	??$insert@V?$_Vector_iterator@V?$_Vector_val@U?$_Simple_types@V?$basic_string@DU?$char_traits@D@std@@V?$allocator@D@2@@std@@@std@@@std@@@std@@X@?$vector@V?$basic_string@DU?$char_traits@D@std@@V?$allocator@D@2@@std@@V?$allocator@V?$basic_string@DU?$char_traits@D@std@@V?$allocator@D@2@@std@@@2@@std@@QEAA?AV?$_Vector_iterator@V?$_Vector_val@U?$_Simple_types@V?$basic_string@DU?$char_traits@D@std@@V?$allocator@D@2@@std@@@std@@@std@@@1@V?$_Vector_const_iterator@V?$_Vector_val@U?$_Simple_types@V?$basic_string@DU?$char_traits@D@std@@V?$allocator@D@2@@std@@@std@@@std@@@1@V21@1@Z
	??$isClassAvailable@V?$MATLABROSMsgInterface@U?$Point_@V?$allocator@X@std@@@geometry_msgs@@@@@ClassLoader@ros1_class_loader@@QEAA_NAEBV?$basic_string@DU?$char_traits@D@std@@V?$allocator@D@2@@std@@@Z
	??$lexicographical_compare@V?$_Tree_const_iterator@V?$_Tree_val@U?$_Tree_simple_types@U?$pair@$$CBV?$basic_string@DU?$char_traits@D@std@@V?$allocator@D@2@@std@@V12@@std@@@std@@@std@@@std@@V12@U?$less@X@2@@std@@YA_NV?$_Tree_const_iterator@V?$_Tree_val@U?$_Tree_simple_types@U?$pair@$$CBV?$basic_string@DU?$char_traits@D@std@@V?$allocator@D@2@@std@@V12@@std@@@std@@@std@@@0@000U?$less@X@0@@Z
	??$make_shared@U?$FlightPlan_@V?$allocator@X@std@@@siam_main@@$$V@mwboost@@YA?AV?$shared_ptr@U?$FlightPlan_@V?$allocator@X@std@@@siam_main@@@0@XZ
	??$make_shared@V?$ROSBagWriterImpl@U?$FlightPlan_@V?$allocator@X@std@@@siam_main@@Vsiam_main_msg_FlightPlan_common@@@@$$V@std@@YA?AV?$shared_ptr@V?$ROSBagWriterImpl@U?$FlightPlan_@V?$allocator@X@std@@@siam_main@@Vsiam_main_msg_FlightPlan_common@@@@@0@XZ
	??$make_shared@V?$ROSPublisherImpl@U?$FlightPlan_@V?$allocator@X@std@@@siam_main@@Vsiam_main_msg_FlightPlan_common@@@@$$V@std@@YA?AV?$shared_ptr@V?$ROSPublisherImpl@U?$FlightPlan_@V?$allocator@X@std@@@siam_main@@Vsiam_main_msg_FlightPlan_common@@@@@0@XZ
	??$make_shared@V?$ROSSubscriberImpl@U?$FlightPlan_@V?$allocator@X@std@@@siam_main@@V?$shared_ptr@$$CBU?$FlightPlan_@V?$allocator@X@std@@@siam_main@@@mwboost@@Vsiam_main_msg_FlightPlan_common@@@@$$V@std@@YA?AV?$shared_ptr@V?$ROSSubscriberImpl@U?$FlightPlan_@V?$allocator@X@std@@@siam_main@@V?$shared_ptr@$$CBU?$FlightPlan_@V?$allocator@X@std@@@siam_main@@@mwboost@@Vsiam_main_msg_FlightPlan_common@@@@@0@XZ
	??$make_shared@V?$SubscriptionCallbackHelperT@AEBV?$shared_ptr@$$CBU?$FlightPlan_@V?$allocator@X@std@@@siam_main@@@mwboost@@X@ros@@AEBV?$function@$$A6AXAEBV?$shared_ptr@$$CBU?$FlightPlan_@V?$allocator@X@std@@@siam_main@@@mwboost@@@Z@mwboost@@AEBV?$function@$$A6A?AV?$shared_ptr@U?$FlightPlan_@V?$allocator@X@std@@@siam_main@@@mwboost@@XZ@4@@mwboost@@YA?AV?$shared_ptr@V?$SubscriptionCallbackHelperT@AEBV?$shared_ptr@$$CBU?$FlightPlan_@V?$allocator@X@std@@@siam_main@@@mwboost@@X@ros@@@0@AEBV?$function@$$A6AXAEBV?$shared_ptr@$$CBU?$FlightPlan_@V?$allocator@X@std@@@siam_main@@@mwboost@@@Z@0@AEBV?$function@$$A6A?AV?$shared_ptr@U?$FlightPlan_@V?$allocator@X@std@@@siam_main@@@mwboost@@XZ@0@@Z
	??$make_shared@V?$map@V?$basic_string@DU?$char_traits@D@std@@V?$allocator@D@2@@std@@V12@U?$less@V?$basic_string@DU?$char_traits@D@std@@V?$allocator@D@2@@std@@@2@V?$allocator@U?$pair@$$CBV?$basic_string@DU?$char_traits@D@std@@V?$allocator@D@2@@std@@V12@@std@@@2@@std@@$$V@mwboost@@YA?AV?$shared_ptr@V?$map@V?$basic_string@DU?$char_traits@D@std@@V?$allocator@D@2@@std@@V12@U?$less@V?$basic_string@DU?$char_traits@D@std@@V?$allocator@D@2@@std@@@2@V?$allocator@U?$pair@$$CBV?$basic_string@DU?$char_traits@D@std@@V?$allocator@D@2@@std@@V12@@std@@@2@@std@@@0@XZ
	??$make_shared@VPublisher@ros@@V12@@std@@YA?AV?$shared_ptr@VPublisher@ros@@@0@$$QEAVPublisher@ros@@@Z
	??$make_shared@VSubscriber@ros@@V12@@std@@YA?AV?$shared_ptr@VSubscriber@ros@@@0@$$QEAVSubscriber@ros@@@Z
	??$move@AEAV?$TypedArray@C@data@matlab@@@std@@YA$$QEAV?$TypedArray@C@data@matlab@@AEAV123@@Z
	??$move@AEAV?$TypedArray@G@data@matlab@@@std@@YA$$QEAV?$TypedArray@G@data@matlab@@AEAV123@@Z
	??$move@AEAV?$TypedArray@VStruct@data@matlab@@@data@matlab@@@std@@YA$$QEAV?$TypedArray@VStruct@data@matlab@@@data@matlab@@AEAV123@@Z
	??$move@AEAV?$TypedArray@_K@data@matlab@@@std@@YA$$QEAV?$TypedArray@_K@data@matlab@@AEAV123@@Z
	??$move@AEAV?$TypedArray@_S@data@matlab@@@std@@YA$$QEAV?$TypedArray@_S@data@matlab@@AEAV123@@Z
	??$onPluginDeletion@V?$MATLABROSMsgInterface@U?$Point_@V?$allocator@X@std@@@geometry_msgs@@@@@ClassLoader@ros1_class_loader@@AEAAXPEAV?$MATLABROSMsgInterface@U?$Point_@V?$allocator@X@std@@@geometry_msgs@@@@@Z
	??$publish@U?$FlightPlan_@V?$allocator@X@std@@@siam_main@@@Publisher@ros@@QEBAXAEBV?$shared_ptr@U?$FlightPlan_@V?$allocator@X@std@@@siam_main@@@mwboost@@@Z
	??$read@UIStream@serialization@ros@@@?$Serializer@C@serialization@ros@@SAXAEAUIStream@12@AEAC@Z
	??$read@UIStream@serialization@ros@@@?$Serializer@G@serialization@ros@@SAXAEAUIStream@12@AEAG@Z
	??$read@UIStream@serialization@ros@@@?$Serializer@I@serialization@ros@@SAXAEAUIStream@12@AEAI@Z
	??$read@UIStream@serialization@ros@@@?$Serializer@N@serialization@ros@@SAXAEAUIStream@12@AEAN@Z
	??$read@UIStream@serialization@ros@@@?$Serializer@V?$basic_string@DU?$char_traits@D@std@@V?$allocator@D@2@@std@@@serialization@ros@@SAXAEAUIStream@12@AEAV?$basic_string@DU?$char_traits@D@std@@V?$allocator@D@2@@std@@@Z
	??$read@UIStream@serialization@ros@@@?$Serializer@_K@serialization@ros@@SAXAEAUIStream@12@AEA_K@Z
	??$read@UIStream@serialization@ros@@@?$VectorSerializer@U?$Point_@V?$allocator@X@std@@@geometry_msgs@@V?$allocator@U?$Point_@V?$allocator@X@std@@@geometry_msgs@@@std@@X@serialization@ros@@SAXAEAUIStream@12@AEAV?$vector@U?$Point_@V?$allocator@X@std@@@geometry_msgs@@V?$allocator@U?$Point_@V?$allocator@X@std@@@geometry_msgs@@@std@@@std@@@Z
	??$registerPlugin@Vsiam_main_FlightPlan_message@@VROSMsgElementInterfaceFactory@@@impl@ros1_class_loader@@YAXAEBV?$basic_string@DU?$char_traits@D@std@@V?$allocator@D@2@@std@@0@Z
	??$registerPlugin@Vsiam_main_msg_FlightPlan_common@@V?$MATLABROSMsgInterface@U?$FlightPlan_@V?$allocator@X@std@@@siam_main@@@@@impl@ros1_class_loader@@YAXAEBV?$basic_string@DU?$char_traits@D@std@@V?$allocator@D@2@@std@@0@Z
	??$reset@E@?$shared_array@E@mwboost@@QEAAXPEAE@Z
	??$reset@VArrayImpl@impl@data@matlab@@V<lambda_49bc69670bef5877f460780ec06c4b58>@@@?$shared_ptr@VArrayImpl@impl@data@matlab@@@std@@QEAAXPEAVArrayImpl@impl@data@matlab@@V<lambda_49bc69670bef5877f460780ec06c4b58>@@@Z
	??$resolveFunction@P6AHHHPEA_N@Z@detail@data@matlab@@YAP6AHHHPEA_N@ZW4FunctionType@012@@Z
	??$resolveFunction@P6AHPEAPEAVArrayFactoryImpl@impl@data@matlab@@@Z@detail@data@matlab@@YAP6AHPEAPEAVArrayFactoryImpl@impl@12@@ZW4FunctionType@012@@Z
	??$resolveFunction@P6AHPEAVArrayFactoryImpl@impl@data@matlab@@HPEBXPEAPEAVArrayImpl@234@@Z@detail@data@matlab@@YAP6AHPEAVArrayFactoryImpl@impl@12@HPEBXPEAPEAVArrayImpl@412@@ZW4FunctionType@012@@Z
	??$resolveFunction@P6AHPEAVArrayFactoryImpl@impl@data@matlab@@PEA_K_KPEAVNameListImpl@detail@34@PEAPEAVArrayImpl@234@@Z@detail@data@matlab@@YAP6AHPEAVArrayFactoryImpl@impl@12@PEA_K_KPEAVNameListImpl@012@PEAPEAVArrayImpl@412@@ZW4FunctionType@012@@Z
	??$resolveFunction@P6AHPEAVArrayFactoryImpl@impl@data@matlab@@PEBD_KPEAPEAVArrayImpl@234@@Z@detail@data@matlab@@YAP6AHPEAVArrayFactoryImpl@impl@12@PEBD_KPEAPEAVArrayImpl@412@@ZW4FunctionType@012@@Z
	??$resolveFunction@P6AHPEAVArrayImpl@impl@data@matlab@@PEAH@Z@detail@data@matlab@@YAP6AHPEAVArrayImpl@impl@12@PEAH@ZW4FunctionType@012@@Z
	??$resolveFunction@P6AHPEAVArrayImpl@impl@data@matlab@@PEAPEB_SPEA_K@Z@detail@data@matlab@@YAP6AHPEAVArrayImpl@impl@12@PEAPEB_SPEA_K@ZW4FunctionType@012@@Z
	??$resolveFunction@P6AHPEAVArrayImpl@impl@data@matlab@@_KPEAPEAVReferenceImpl@detail@34@@Z@detail@data@matlab@@YAP6AHPEAVArrayImpl@impl@12@_KPEAPEAVReferenceImpl@012@@ZW4FunctionType@012@@Z
	??$resolveFunction@P6AHPEAVReferenceImpl@detail@data@matlab@@PEAPEAX@Z@detail@data@matlab@@YAP6AHPEAVReferenceImpl@012@PEAPEAX@ZW4FunctionType@012@@Z
	??$resolveFunction@P6AHPEAVReferenceImpl@detail@data@matlab@@PEAVArrayImpl@impl@34@@Z@detail@data@matlab@@YAP6AHPEAVReferenceImpl@012@PEAVArrayImpl@impl@12@@ZW4FunctionType@012@@Z
	??$resolveFunction@P6AHPEAVReferenceImpl@detail@data@matlab@@PEBD_K@Z@detail@data@matlab@@YAP6AHPEAVReferenceImpl@012@PEBD_K@ZW4FunctionType@012@@Z
	??$resolveFunction@P6AHPEAVReferenceImpl@detail@data@matlab@@PEBD_KPEAPEAVArrayImpl@impl@34@@Z@detail@data@matlab@@YAP6AHPEAVReferenceImpl@012@PEBD_KPEAPEAVArrayImpl@impl@12@@ZW4FunctionType@012@@Z
	??$resolveFunction@P6APEAVIteratorImpl@detail@data@matlab@@PEAVArrayImpl@impl@34@_N@Z@detail@data@matlab@@YAP6APEAVIteratorImpl@012@PEAVArrayImpl@impl@12@_N@ZW4FunctionType@012@@Z
	??$resolveFunction@P6APEAVNameListImpl@detail@data@matlab@@_K@Z@detail@data@matlab@@YAP6APEAVNameListImpl@012@_K@ZW4FunctionType@012@@Z
	??$resolveFunction@P6AXPEAVArrayFactoryImpl@impl@data@matlab@@@Z@detail@data@matlab@@YAP6AXPEAVArrayFactoryImpl@impl@12@@ZW4FunctionType@012@@Z
	??$resolveFunction@P6AXPEAVArrayImpl@impl@data@matlab@@@Z@detail@data@matlab@@YAP6AXPEAVArrayImpl@impl@12@@ZW4FunctionType@012@@Z
	??$resolveFunction@P6AXPEAVIteratorImpl@detail@data@matlab@@@Z@detail@data@matlab@@YAP6AXPEAVIteratorImpl@012@@ZW4FunctionType@012@@Z
	??$resolveFunction@P6AXPEAVIteratorImpl@detail@data@matlab@@PEAPEAVReferenceImpl@234@@Z@detail@data@matlab@@YAP6AXPEAVIteratorImpl@012@PEAPEAVReferenceImpl@012@@ZW4FunctionType@012@@Z
	??$resolveFunction@P6AXPEAVNameListImpl@detail@data@matlab@@@Z@detail@data@matlab@@YAP6AXPEAVNameListImpl@012@@ZW4FunctionType@012@@Z
	??$resolveFunction@P6AXPEAVNameListImpl@detail@data@matlab@@PEBD_K@Z@detail@data@matlab@@YAP6AXPEAVNameListImpl@012@PEBD_K@ZW4FunctionType@012@@Z
	??$resolveFunction@P6AXPEAVReferenceImpl@detail@data@matlab@@@Z@detail@data@matlab@@YAP6AXPEAVReferenceImpl@012@@ZW4FunctionType@012@@Z
	??$resolveFunction@P6A_NPEAVArrayImpl@impl@data@matlab@@_NPEAPEAV1234@@Z@detail@data@matlab@@YAP6A_NPEAVArrayImpl@impl@12@_NPEAPEAV3412@@ZW4FunctionType@012@@Z
	??$resolveFunction@P6A_NPEAVIteratorImpl@detail@data@matlab@@0@Z@detail@data@matlab@@YAP6A_NPEAVIteratorImpl@012@0@ZW4FunctionType@012@@Z
	??$resolveFunctionNoExcept@P6APEAVIteratorImpl@detail@data@matlab@@PEAVArrayImpl@impl@34@_N@Z@detail@data@matlab@@YAP6APEAVIteratorImpl@012@PEAVArrayImpl@impl@12@_N@ZW4FunctionType@012@@Z
	??$serializeMessage@U?$FlightPlan_@V?$allocator@X@std@@@siam_main@@@serialization@ros@@YA?AVSerializedMessage@1@AEBU?$FlightPlan_@V?$allocator@X@std@@@siam_main@@@Z
	??$serializedLength@U?$Point_@V?$allocator@X@std@@@geometry_msgs@@@?$Serializer@U?$Point_@V?$allocator@X@std@@@geometry_msgs@@@serialization@ros@@SAIAEBU?$Point_@V?$allocator@X@std@@@geometry_msgs@@@Z
	??$setElement@VArray@data@matlab@@@detail@data@matlab@@YAXPEAVReferenceImpl@012@VArray@12@H@Z
	??$sp_forward@AEBV?$function@$$A6A?AV?$shared_ptr@U?$FlightPlan_@V?$allocator@X@std@@@siam_main@@@mwboost@@XZ@mwboost@@@detail@mwboost@@YAAEBV?$function@$$A6A?AV?$shared_ptr@U?$FlightPlan_@V?$allocator@X@std@@@siam_main@@@mwboost@@XZ@1@AEBV21@@Z
	??$sp_forward@AEBV?$function@$$A6AXAEBV?$shared_ptr@$$CBU?$FlightPlan_@V?$allocator@X@std@@@siam_main@@@mwboost@@@Z@mwboost@@@detail@mwboost@@YAAEBV?$function@$$A6AXAEBV?$shared_ptr@$$CBU?$FlightPlan_@V?$allocator@X@std@@@siam_main@@@mwboost@@@Z@1@AEBV21@@Z
	??$sp_pointer_construct@$$CBVclone_base@exception_detail@mwboost@@V?$clone_impl@Ubad_alloc_@exception_detail@mwboost@@@23@@detail@mwboost@@YAXPEAV?$shared_ptr@$$CBVclone_base@exception_detail@mwboost@@@1@PEAV?$clone_impl@Ubad_alloc_@exception_detail@mwboost@@@exception_detail@1@AEAVshared_count@01@@Z
	??$sp_pointer_construct@$$CBVclone_base@exception_detail@mwboost@@V?$clone_impl@Ubad_exception_@exception_detail@mwboost@@@23@@detail@mwboost@@YAXPEAV?$shared_ptr@$$CBVclone_base@exception_detail@mwboost@@@1@PEAV?$clone_impl@Ubad_exception_@exception_detail@mwboost@@@exception_detail@1@AEAVshared_count@01@@Z
	??$static_pointer_cast@$$CBU?$FlightPlan_@V?$allocator@X@std@@@siam_main@@$$CBX@mwboost@@YA?AV?$shared_ptr@$$CBU?$FlightPlan_@V?$allocator@X@std@@@siam_main@@@0@$$QEAV?$shared_ptr@$$CBX@0@@Z
	??$subscribe@U?$FlightPlan_@V?$allocator@X@std@@@siam_main@@V?$ROSSubscriberImpl@U?$FlightPlan_@V?$allocator@X@std@@@siam_main@@V?$shared_ptr@$$CBU?$FlightPlan_@V?$allocator@X@std@@@siam_main@@@mwboost@@Vsiam_main_msg_FlightPlan_common@@@@@NodeHandle@ros@@QEAA?AVSubscriber@1@AEBV?$basic_string@DU?$char_traits@D@std@@V?$allocator@D@2@@std@@IP8?$ROSSubscriberImpl@U?$FlightPlan_@V?$allocator@X@std@@@siam_main@@V?$shared_ptr@$$CBU?$FlightPlan_@V?$allocator@X@std@@@siam_main@@@mwboost@@Vsiam_main_msg_FlightPlan_common@@@@EAAXAEBV?$shared_ptr@$$CBU?$FlightPlan_@V?$allocator@X@std@@@siam_main@@@mwboost@@@ZPEAV5@AEBVTransportHints@1@@Z
	??$throw_exception@Vbad_function_call@mwboost@@@mwboost@@YAXAEBVbad_function_call@0@@Z
	??$throw_exception@Vlock_error@mwboost@@@mwboost@@YAXAEBVlock_error@0@@Z
	??$throw_exception@Vthread_resource_error@mwboost@@@mwboost@@YAXAEBVthread_resource_error@0@@Z
	??$toHeaderString@E@Bag@rosbag@@AEBA?AV?$basic_string@DU?$char_traits@D@std@@V?$allocator@D@2@@std@@PEBE@Z
	??$toHeaderString@I@Bag@rosbag@@AEBA?AV?$basic_string@DU?$char_traits@D@std@@V?$allocator@D@2@@std@@PEBI@Z
	??$transform@PEB_SV?$back_insert_iterator@V?$basic_string@DU?$char_traits@D@std@@V?$allocator@D@2@@std@@@std@@V<lambda_9eec3259c40046946bde6a148e6f4eaa>@@@std@@YA?AV?$back_insert_iterator@V?$basic_string@DU?$char_traits@D@std@@V?$allocator@D@2@@std@@@0@QEB_S0V10@V<lambda_9eec3259c40046946bde6a148e6f4eaa>@@@Z
	??$write@U?$FlightPlan_@V?$allocator@X@std@@@siam_main@@@Bag@rosbag@@QEAAXAEBV?$basic_string@DU?$char_traits@D@std@@V?$allocator@D@2@@std@@AEBVTime@ros@@AEBV?$shared_ptr@U?$FlightPlan_@V?$allocator@X@std@@@siam_main@@@mwboost@@V?$shared_ptr@V?$map@V?$basic_string@DU?$char_traits@D@std@@V?$allocator@D@2@@std@@V12@U?$less@V?$basic_string@DU?$char_traits@D@std@@V?$allocator@D@2@@std@@@2@V?$allocator@U?$pair@$$CBV?$basic_string@DU?$char_traits@D@std@@V?$allocator@D@2@@std@@V12@@std@@@2@@std@@@7@@Z
	??$write@UOStream@serialization@ros@@@?$Serializer@C@serialization@ros@@SAXAEAUOStream@12@C@Z
	??$write@UOStream@serialization@ros@@@?$Serializer@G@serialization@ros@@SAXAEAUOStream@12@G@Z
	??$write@UOStream@serialization@ros@@@?$Serializer@I@serialization@ros@@SAXAEAUOStream@12@I@Z
	??$write@UOStream@serialization@ros@@@?$Serializer@N@serialization@ros@@SAXAEAUOStream@12@N@Z
	??$write@UOStream@serialization@ros@@@?$Serializer@V?$basic_string@DU?$char_traits@D@std@@V?$allocator@D@2@@std@@@serialization@ros@@SAXAEAUOStream@12@AEBV?$basic_string@DU?$char_traits@D@std@@V?$allocator@D@2@@std@@@Z
	??$write@UOStream@serialization@ros@@@?$Serializer@_K@serialization@ros@@SAXAEAUOStream@12@_K@Z
	??$write@UOStream@serialization@ros@@@?$VectorSerializer@U?$Point_@V?$allocator@X@std@@@geometry_msgs@@V?$allocator@U?$Point_@V?$allocator@X@std@@@geometry_msgs@@@std@@X@serialization@ros@@SAXAEAUOStream@12@AEBV?$vector@U?$Point_@V?$allocator@X@std@@@geometry_msgs@@V?$allocator@U?$Point_@V?$allocator@X@std@@@geometry_msgs@@@std@@@std@@@Z
	??$writeMessageDataRecord@U?$FlightPlan_@V?$allocator@X@std@@@siam_main@@@Bag@rosbag@@AEAAXIAEBVTime@ros@@AEBU?$FlightPlan_@V?$allocator@X@std@@@siam_main@@@Z
	??0?$AbstractMetaObject@V?$MATLABROSMsgInterface@U?$FlightPlan_@V?$allocator@X@std@@@siam_main@@@@@impl@ros1_class_loader@@QEAA@AEBV?$basic_string@DU?$char_traits@D@std@@V?$allocator@D@2@@std@@0@Z
	??0?$AbstractMetaObject@VROSMsgElementInterfaceFactory@@@impl@ros1_class_loader@@QEAA@AEBV?$basic_string@DU?$char_traits@D@std@@V?$allocator@D@2@@std@@0@Z
	??0?$ArrayElementTypedRef@VArray@data@matlab@@$0A@@data@matlab@@AEAA@V?$shared_ptr@VReferenceImpl@detail@data@matlab@@@std@@@Z
	??0?$ArrayException@VException@matlab@@$00@detail@data@matlab@@QEAA@AEBV0123@@Z
	??0?$ArrayException@VException@matlab@@$00@detail@data@matlab@@QEAA@V?$basic_string@DU?$char_traits@D@std@@V?$allocator@D@2@@std@@@Z
	??0?$ArrayException@VException@matlab@@$01@detail@data@matlab@@QEAA@AEBV0123@@Z
	??0?$ArrayException@VException@matlab@@$01@detail@data@matlab@@QEAA@V?$basic_string@DU?$char_traits@D@std@@V?$allocator@D@2@@std@@@Z
	??0?$ArrayException@VException@matlab@@$02@detail@data@matlab@@QEAA@AEBV0123@@Z
	??0?$ArrayException@VException@matlab@@$02@detail@data@matlab@@QEAA@V?$basic_string@DU?$char_traits@D@std@@V?$allocator@D@2@@std@@@Z
	??0?$ArrayException@VException@matlab@@$04@detail@data@matlab@@QEAA@AEBV0123@@Z
	??0?$ArrayException@VException@matlab@@$04@detail@data@matlab@@QEAA@V?$basic_string@DU?$char_traits@D@std@@V?$allocator@D@2@@std@@@Z
	??0?$ArrayException@VException@matlab@@$05@detail@data@matlab@@QEAA@AEBV0123@@Z
	??0?$ArrayException@VException@matlab@@$05@detail@data@matlab@@QEAA@V?$basic_string@DU?$char_traits@D@std@@V?$allocator@D@2@@std@@@Z
	??0?$ArrayException@VException@matlab@@$06@detail@data@matlab@@QEAA@AEBV0123@@Z
	??0?$ArrayException@VException@matlab@@$06@detail@data@matlab@@QEAA@V?$basic_string@DU?$char_traits@D@std@@V?$allocator@D@2@@std@@@Z
	??0?$ArrayException@VException@matlab@@$07@detail@data@matlab@@QEAA@AEBV0123@@Z
	??0?$ArrayException@VException@matlab@@$07@detail@data@matlab@@QEAA@V?$basic_string@DU?$char_traits@D@std@@V?$allocator@D@2@@std@@@Z
	??0?$ArrayException@VException@matlab@@$08@detail@data@matlab@@QEAA@AEBV0123@@Z
	??0?$ArrayException@VException@matlab@@$08@detail@data@matlab@@QEAA@V?$basic_string@DU?$char_traits@D@std@@V?$allocator@D@2@@std@@@Z
	??0?$ArrayException@VException@matlab@@$09@detail@data@matlab@@QEAA@AEBV0123@@Z
	??0?$ArrayException@VException@matlab@@$09@detail@data@matlab@@QEAA@V?$basic_string@DU?$char_traits@D@std@@V?$allocator@D@2@@std@@@Z
	??0?$ArrayException@VException@matlab@@$0BA@@detail@data@matlab@@QEAA@AEBV0123@@Z
	??0?$ArrayException@VException@matlab@@$0BA@@detail@data@matlab@@QEAA@V?$basic_string@DU?$char_traits@D@std@@V?$allocator@D@2@@std@@@Z
	??0?$ArrayException@VException@matlab@@$0BC@@detail@data@matlab@@QEAA@AEBV0123@@Z
	??0?$ArrayException@VException@matlab@@$0BC@@detail@data@matlab@@QEAA@V?$basic_string@DU?$char_traits@D@std@@V?$allocator@D@2@@std@@@Z
	??0?$ArrayException@VException@matlab@@$0BD@@detail@data@matlab@@QEAA@AEBV0123@@Z
	??0?$ArrayException@VException@matlab@@$0BD@@detail@data@matlab@@QEAA@V?$basic_string@DU?$char_traits@D@std@@V?$allocator@D@2@@std@@@Z
	??0?$ArrayException@VException@matlab@@$0BE@@detail@data@matlab@@QEAA@AEBV0123@@Z
	??0?$ArrayException@VException@matlab@@$0BE@@detail@data@matlab@@QEAA@V?$basic_string@DU?$char_traits@D@std@@V?$allocator@D@2@@std@@@Z
	??0?$ArrayException@VException@matlab@@$0BF@@detail@data@matlab@@QEAA@AEBV0123@@Z
	??0?$ArrayException@VException@matlab@@$0BF@@detail@data@matlab@@QEAA@V?$basic_string@DU?$char_traits@D@std@@V?$allocator@D@2@@std@@@Z
	??0?$ArrayException@VException@matlab@@$0BG@@detail@data@matlab@@QEAA@AEBV0123@@Z
	??0?$ArrayException@VException@matlab@@$0BG@@detail@data@matlab@@QEAA@V?$basic_string@DU?$char_traits@D@std@@V?$allocator@D@2@@std@@@Z
	??0?$ArrayException@VException@matlab@@$0BH@@detail@data@matlab@@QEAA@AEBV0123@@Z
	??0?$ArrayException@VException@matlab@@$0BH@@detail@data@matlab@@QEAA@V?$basic_string@DU?$char_traits@D@std@@V?$allocator@D@2@@std@@@Z
	??0?$ArrayException@VException@matlab@@$0BI@@detail@data@matlab@@QEAA@AEBV0123@@Z
	??0?$ArrayException@VException@matlab@@$0BI@@detail@data@matlab@@QEAA@V?$basic_string@DU?$char_traits@D@std@@V?$allocator@D@2@@std@@@Z
	??0?$ArrayException@VException@matlab@@$0BJ@@detail@data@matlab@@QEAA@AEBV0123@@Z
	??0?$ArrayException@VException@matlab@@$0BJ@@detail@data@matlab@@QEAA@V?$basic_string@DU?$char_traits@D@std@@V?$allocator@D@2@@std@@@Z
	??0?$ArrayException@VException@matlab@@$0BK@@detail@data@matlab@@QEAA@AEBV0123@@Z
	??0?$ArrayException@VException@matlab@@$0BK@@detail@data@matlab@@QEAA@V?$basic_string@DU?$char_traits@D@std@@V?$allocator@D@2@@std@@@Z
	??0?$ArrayException@VException@matlab@@$0BL@@detail@data@matlab@@QEAA@AEBV0123@@Z
	??0?$ArrayException@VException@matlab@@$0BL@@detail@data@matlab@@QEAA@V?$basic_string@DU?$char_traits@D@std@@V?$allocator@D@2@@std@@@Z
	??0?$ArrayException@VException@matlab@@$0BM@@detail@data@matlab@@QEAA@AEBV0123@@Z
	??0?$ArrayException@VException@matlab@@$0BM@@detail@data@matlab@@QEAA@V?$basic_string@DU?$char_traits@D@std@@V?$allocator@D@2@@std@@@Z
	??0?$ArrayException@VException@matlab@@$0BN@@detail@data@matlab@@QEAA@AEBV0123@@Z
	??0?$ArrayException@VException@matlab@@$0BN@@detail@data@matlab@@QEAA@V?$basic_string@DU?$char_traits@D@std@@V?$allocator@D@2@@std@@@Z
	??0?$ArrayException@VException@matlab@@$0N@@detail@data@matlab@@QEAA@AEBV0123@@Z
	??0?$ArrayException@VException@matlab@@$0N@@detail@data@matlab@@QEAA@V?$basic_string@DU?$char_traits@D@std@@V?$allocator@D@2@@std@@@Z
	??0?$ArrayException@VException@matlab@@$0O@@detail@data@matlab@@QEAA@AEBV0123@@Z
	??0?$ArrayException@VException@matlab@@$0O@@detail@data@matlab@@QEAA@V?$basic_string@DU?$char_traits@D@std@@V?$allocator@D@2@@std@@@Z
	??0?$ArrayException@VException@matlab@@$0P@@detail@data@matlab@@QEAA@AEBV0123@@Z
	??0?$ArrayException@VException@matlab@@$0P@@detail@data@matlab@@QEAA@V?$basic_string@DU?$char_traits@D@std@@V?$allocator@D@2@@std@@@Z
	??0?$FlightPlan_@V?$allocator@X@std@@@siam_main@@QEAA@XZ
	??0?$MATLABROSMsgInterface@U?$FlightPlan_@V?$allocator@X@std@@@siam_main@@@@QEAA@AEBV0@@Z
	??0?$MATLABROSMsgInterface@U?$FlightPlan_@V?$allocator@X@std@@@siam_main@@@@QEAA@XZ
	??0?$MessageEvent@$$CBU?$FlightPlan_@V?$allocator@X@std@@@siam_main@@@ros@@QEAA@AEBV?$MessageEvent@$$CBX@1@AEBV?$function@$$A6A?AV?$shared_ptr@U?$FlightPlan_@V?$allocator@X@std@@@siam_main@@@mwboost@@XZ@mwboost@@@Z
	??0?$ROSPublisherImpl@U?$FlightPlan_@V?$allocator@X@std@@@siam_main@@Vsiam_main_msg_FlightPlan_common@@@@QEAA@XZ
	??0?$ROSSubscriberImpl@U?$FlightPlan_@V?$allocator@X@std@@@siam_main@@V?$shared_ptr@$$CBU?$FlightPlan_@V?$allocator@X@std@@@siam_main@@@mwboost@@Vsiam_main_msg_FlightPlan_common@@@@QEAA@XZ
	??0?$SubscriptionCallbackHelperT@AEBV?$shared_ptr@$$CBU?$FlightPlan_@V?$allocator@X@std@@@siam_main@@@mwboost@@X@ros@@QEAA@AEBV?$function@$$A6AXV?$shared_ptr@$$CBU?$FlightPlan_@V?$allocator@X@std@@@siam_main@@@mwboost@@@Z@mwboost@@AEBV?$function@$$A6A?AV?$shared_ptr@U?$FlightPlan_@V?$allocator@X@std@@@siam_main@@@mwboost@@XZ@3@@Z
	??0?$TypedArray@C@data@matlab@@QEAA@$$QEAVArray@12@@Z
	??0?$TypedArray@G@data@matlab@@QEAA@$$QEAVArray@12@@Z
	??0?$TypedArray@VStruct@data@matlab@@@data@matlab@@QEAA@$$QEAVArray@12@@Z
	??0?$TypedArray@_K@data@matlab@@QEAA@$$QEAVArray@12@@Z
	??0?$TypedArray@_S@data@matlab@@QEAA@$$QEAVArray@12@@Z
	??0?$TypedIterator@$$CBVStruct@data@matlab@@@data@matlab@@AEAA@PEAVIteratorImpl@detail@12@@Z
	??0?$_String_val@U?$_Simple_types@D@std@@@std@@QEAA@XZ
	??0?$_Tree_comp_alloc@V?$_Tmap_traits@V?$basic_string@DU?$char_traits@D@std@@V?$allocator@D@2@@std@@V12@U?$less@V?$basic_string@DU?$char_traits@D@std@@V?$allocator@D@2@@std@@@2@V?$allocator@U?$pair@$$CBV?$basic_string@DU?$char_traits@D@std@@V?$allocator@D@2@@std@@V12@@std@@@2@$0A@@std@@@std@@QEAA@AEBU?$less@V?$basic_string@DU?$char_traits@D@std@@V?$allocator@D@2@@std@@@1@@Z
	??0?$_Tree_comp_alloc@V?$_Tset_traits@UIndexEntry@rosbag@@U?$less@UIndexEntry@rosbag@@@std@@V?$allocator@UIndexEntry@rosbag@@@4@$00@std@@@std@@QEAA@AEBU?$less@UIndexEntry@rosbag@@@1@@Z
	??0?$_Tree_unchecked_const_iterator@V?$_Tree_val@U?$_Tree_simple_types@U?$pair@$$CBII@std@@@std@@@std@@U_Iterator_base0@2@@std@@QEAA@PEAU?$_Tree_node@U?$pair@$$CBII@std@@PEAX@1@PEBV?$_Tree_val@U?$_Tree_simple_types@U?$pair@$$CBII@std@@@std@@@1@@Z
	??0?$_Tree_unchecked_const_iterator@V?$_Tree_val@U?$_Tree_simple_types@U?$pair@$$CBIPEAUConnectionInfo@rosbag@@@std@@@std@@@std@@U_Iterator_base0@2@@std@@QEAA@PEAU?$_Tree_node@U?$pair@$$CBIPEAUConnectionInfo@rosbag@@@std@@PEAX@1@PEBV?$_Tree_val@U?$_Tree_simple_types@U?$pair@$$CBIPEAUConnectionInfo@rosbag@@@std@@@std@@@1@@Z
	??0?$_Tree_unchecked_const_iterator@V?$_Tree_val@U?$_Tree_simple_types@U?$pair@$$CBIV?$multiset@UIndexEntry@rosbag@@U?$less@UIndexEntry@rosbag@@@std@@V?$allocator@UIndexEntry@rosbag@@@4@@std@@@std@@@std@@@std@@U_Iterator_base0@2@@std@@QEAA@PEAU?$_Tree_node@U?$pair@$$CBIV?$multiset@UIndexEntry@rosbag@@U?$less@UIndexEntry@rosbag@@@std@@V?$allocator@UIndexEntry@rosbag@@@4@@std@@@std@@PEAX@1@PEBV?$_Tree_val@U?$_Tree_simple_types@U?$pair@$$CBIV?$multiset@UIndexEntry@rosbag@@U?$less@UIndexEntry@rosbag@@@std@@V?$allocator@UIndexEntry@rosbag@@@4@@std@@@std@@@std@@@1@@Z
	??0?$_Tree_unchecked_const_iterator@V?$_Tree_val@U?$_Tree_simple_types@U?$pair@$$CBV?$basic_string@DU?$char_traits@D@std@@V?$allocator@D@2@@std@@I@std@@@std@@@std@@U_Iterator_base0@2@@std@@QEAA@PEAU?$_Tree_node@U?$pair@$$CBV?$basic_string@DU?$char_traits@D@std@@V?$allocator@D@2@@std@@I@std@@PEAX@1@PEBV?$_Tree_val@U?$_Tree_simple_types@U?$pair@$$CBV?$basic_string@DU?$char_traits@D@std@@V?$allocator@D@2@@std@@I@std@@@std@@@1@@Z
	??0?$_Tree_unchecked_const_iterator@V?$_Tree_val@U?$_Tree_simple_types@U?$pair@$$CBV?$basic_string@DU?$char_traits@D@std@@V?$allocator@D@2@@std@@PEAVAbstractMetaObjectBase@impl@ros1_class_loader@@@std@@@std@@@std@@U_Iterator_base0@2@@std@@QEAA@PEAU?$_Tree_node@U?$pair@$$CBV?$basic_string@DU?$char_traits@D@std@@V?$allocator@D@2@@std@@PEAVAbstractMetaObjectBase@impl@ros1_class_loader@@@std@@PEAX@1@PEBV?$_Tree_val@U?$_Tree_simple_types@U?$pair@$$CBV?$basic_string@DU?$char_traits@D@std@@V?$allocator@D@2@@std@@PEAVAbstractMetaObjectBase@impl@ros1_class_loader@@@std@@@std@@@1@@Z
	??0?$_Tree_unchecked_const_iterator@V?$_Tree_val@U?$_Tree_simple_types@U?$pair@$$CBV?$basic_string@DU?$char_traits@D@std@@V?$allocator@D@2@@std@@V12@@std@@@std@@@std@@U_Iterator_base0@2@@std@@QEAA@PEAU?$_Tree_node@U?$pair@$$CBV?$basic_string@DU?$char_traits@D@std@@V?$allocator@D@2@@std@@V12@@std@@PEAX@1@PEBV?$_Tree_val@U?$_Tree_simple_types@U?$pair@$$CBV?$basic_string@DU?$char_traits@D@std@@V?$allocator@D@2@@std@@V12@@std@@@std@@@1@@Z
	??0?$_Tree_unchecked_const_iterator@V?$_Tree_val@U?$_Tree_simple_types@U?$pair@$$CBV?$basic_string@DU?$char_traits@D@std@@V?$allocator@D@2@@std@@V?$shared_ptr@VMATLABROSMsgInterfaceBase@@@mwboost@@@std@@@std@@@std@@U_Iterator_base0@2@@std@@QEAA@PEAU?$_Tree_node@U?$pair@$$CBV?$basic_string@DU?$char_traits@D@std@@V?$allocator@D@2@@std@@V?$shared_ptr@VMATLABROSMsgInterfaceBase@@@mwboost@@@std@@PEAX@1@PEBV?$_Tree_val@U?$_Tree_simple_types@U?$pair@$$CBV?$basic_string@DU?$char_traits@D@std@@V?$allocator@D@2@@std@@V?$shared_ptr@VMATLABROSMsgInterfaceBase@@@mwboost@@@std@@@std@@@1@@Z
	??0?$_Tree_unchecked_const_iterator@V?$_Tree_val@U?$_Tree_simple_types@U?$pair@$$CBV?$map@V?$basic_string@DU?$char_traits@D@std@@V?$allocator@D@2@@std@@V12@U?$less@V?$basic_string@DU?$char_traits@D@std@@V?$allocator@D@2@@std@@@2@V?$allocator@U?$pair@$$CBV?$basic_string@DU?$char_traits@D@std@@V?$allocator@D@2@@std@@V12@@std@@@2@@std@@I@std@@@std@@@std@@U_Iterator_base0@2@@std@@QEAA@PEAU?$_Tree_node@U?$pair@$$CBV?$map@V?$basic_string@DU?$char_traits@D@std@@V?$allocator@D@2@@std@@V12@U?$less@V?$basic_string@DU?$char_traits@D@std@@V?$allocator@D@2@@std@@@2@V?$allocator@U?$pair@$$CBV?$basic_string@DU?$char_traits@D@std@@V?$allocator@D@2@@std@@V12@@std@@@2@@std@@I@std@@PEAX@1@PEBV?$_Tree_val@U?$_Tree_simple_types@U?$pair@$$CBV?$map@V?$basic_string@DU?$char_traits@D@std@@V?$allocator@D@2@@std@@V12@U?$less@V?$basic_string@DU?$char_traits@D@std@@V?$allocator@D@2@@std@@@2@V?$allocator@U?$pair@$$CBV?$basic_string@DU?$char_traits@D@std@@V?$allocator@D@2@@std@@V12@@std@@@2@@std@@I@std@@@std@@@1@@Z
	??0?$_Tree_unchecked_const_iterator@V?$_Tree_val@U?$_Tree_simple_types@UIndexEntry@rosbag@@@std@@@std@@U_Iterator_base0@2@@std@@QEAA@PEAU?$_Tree_node@UIndexEntry@rosbag@@PEAX@1@PEBV?$_Tree_val@U?$_Tree_simple_types@UIndexEntry@rosbag@@@std@@@1@@Z
	??0?$allocator@U?$pair@W4FunctionType@detail@data@matlab@@V?$basic_string@DU?$char_traits@D@std@@V?$allocator@D@2@@std@@@std@@@std@@QEAA@XZ
	??0?$basic_string@DU?$char_traits@D@std@@V?$allocator@D@2@@std@@QEAA@$$QEAV01@@Z
	??0?$basic_string@DU?$char_traits@D@std@@V?$allocator@D@2@@std@@QEAA@AEBV01@@Z
	??0?$basic_string@DU?$char_traits@D@std@@V?$allocator@D@2@@std@@QEAA@QEBD@Z
	??0?$basic_string@DU?$char_traits@D@std@@V?$allocator@D@2@@std@@QEAA@QEBD_K@Z
	??0?$basic_string@DU?$char_traits@D@std@@V?$allocator@D@2@@std@@QEAA@XZ
	??0?$clone_impl@Ubad_alloc_@exception_detail@mwboost@@@exception_detail@mwboost@@AEAA@AEBV012@Uclone_tag@012@@Z
	??0?$clone_impl@Ubad_alloc_@exception_detail@mwboost@@@exception_detail@mwboost@@QEAA@AEBUbad_alloc_@12@@Z
	??0?$clone_impl@Ubad_alloc_@exception_detail@mwboost@@@exception_detail@mwboost@@QEAA@AEBV012@@Z
	??0?$clone_impl@Ubad_exception_@exception_detail@mwboost@@@exception_detail@mwboost@@AEAA@AEBV012@Uclone_tag@012@@Z
	??0?$clone_impl@Ubad_exception_@exception_detail@mwboost@@@exception_detail@mwboost@@QEAA@AEBUbad_exception_@12@@Z
	??0?$clone_impl@Ubad_exception_@exception_detail@mwboost@@@exception_detail@mwboost@@QEAA@AEBV012@@Z
	??0?$initializer_list@U?$pair@W4FunctionType@detail@data@matlab@@V?$basic_string@DU?$char_traits@D@std@@V?$allocator@D@2@@std@@@std@@@std@@QEAA@PEBU?$pair@W4FunctionType@detail@data@matlab@@V?$basic_string@DU?$char_traits@D@std@@V?$allocator@D@2@@std@@@1@0@Z
	??0?$shared_ptr@$$CBU?$FlightPlan_@V?$allocator@X@std@@@siam_main@@@mwboost@@QEAA@AEBV01@@Z
	??0?$shared_ptr@$$CBVclone_base@exception_detail@mwboost@@@mwboost@@QEAA@AEBV01@@Z
	??0?$shared_ptr@U?$FlightPlan_@V?$allocator@X@std@@@siam_main@@@mwboost@@QEAA@AEBV01@@Z
	??0?$shared_ptr@V?$map@V?$basic_string@DU?$char_traits@D@std@@V?$allocator@D@2@@std@@V12@U?$less@V?$basic_string@DU?$char_traits@D@std@@V?$allocator@D@2@@std@@@2@V?$allocator@U?$pair@$$CBV?$basic_string@DU?$char_traits@D@std@@V?$allocator@D@2@@std@@V12@@std@@@2@@std@@@mwboost@@QEAA@AEBV01@@Z
	??0?$shared_ptr@VArrayImpl@impl@data@matlab@@@std@@QEAA@$$QEAV01@@Z
	??0?$shared_ptr@VReferenceImpl@detail@data@matlab@@@std@@QEAA@AEBV01@@Z
	??0?$vector@U?$Point_@V?$allocator@X@std@@@geometry_msgs@@V?$allocator@U?$Point_@V?$allocator@X@std@@@geometry_msgs@@@std@@@std@@QEAA@AEBV01@@Z
	??0?$vector@U?$pair@W4FunctionType@detail@data@matlab@@V?$basic_string@DU?$char_traits@D@std@@V?$allocator@D@2@@std@@@std@@V?$allocator@U?$pair@W4FunctionType@detail@data@matlab@@V?$basic_string@DU?$char_traits@D@std@@V?$allocator@D@2@@std@@@std@@@2@@std@@QEAA@V?$initializer_list@U?$pair@W4FunctionType@detail@data@matlab@@V?$basic_string@DU?$char_traits@D@std@@V?$allocator@D@2@@std@@@std@@@1@AEBV?$allocator@U?$pair@W4FunctionType@detail@data@matlab@@V?$basic_string@DU?$char_traits@D@std@@V?$allocator@D@2@@std@@@std@@@1@@Z
	??0?$vector@V?$basic_string@DU?$char_traits@D@std@@V?$allocator@D@2@@std@@V?$allocator@V?$basic_string@DU?$char_traits@D@std@@V?$allocator@D@2@@std@@@2@@std@@QEAA@$$QEAV01@@Z
	??0?$vector@V?$basic_string@DU?$char_traits@D@std@@V?$allocator@D@2@@std@@V?$allocator@V?$basic_string@DU?$char_traits@D@std@@V?$allocator@D@2@@std@@@2@@std@@QEAA@V?$initializer_list@V?$basic_string@DU?$char_traits@D@std@@V?$allocator@D@2@@std@@@1@AEBV?$allocator@V?$basic_string@DU?$char_traits@D@std@@V?$allocator@D@2@@std@@@1@@Z
	??0?$vector@VArray@data@matlab@@V?$allocator@VArray@data@matlab@@@std@@@std@@QEAA@V?$initializer_list@VArray@data@matlab@@@1@AEBV?$allocator@VArray@data@matlab@@@1@@Z
	??0?$vector@_KV?$allocator@_K@std@@@std@@QEAA@V?$initializer_list@_K@1@AEBV?$allocator@_K@1@@Z
	??0?$wrapexcept@Vbad_function_call@mwboost@@@mwboost@@QEAA@AEBU01@@Z
	??0?$wrapexcept@Vbad_function_call@mwboost@@@mwboost@@QEAA@AEBVbad_function_call@1@@Z
	??0?$wrapexcept@Vlock_error@mwboost@@@mwboost@@QEAA@AEBU01@@Z
	??0?$wrapexcept@Vlock_error@mwboost@@@mwboost@@QEAA@AEBVlock_error@1@@Z
	??0?$wrapexcept@Vthread_resource_error@mwboost@@@mwboost@@QEAA@AEBU01@@Z
	??0?$wrapexcept@Vthread_resource_error@mwboost@@@mwboost@@QEAA@AEBVthread_resource_error@1@@Z
	??0Array@data@matlab@@IEAA@PEAVArrayImpl@impl@12@@Z
	??0Array@data@matlab@@QEAA@$$QEAV012@@Z
	??0Array@data@matlab@@QEAA@AEBV012@@Z
	??0ArrayFactory@data@matlab@@QEAA@XZ
	??0ArrayReferenceExt@data@matlab@@IEAA@V?$shared_ptr@VReferenceImpl@detail@data@matlab@@@std@@@Z
	??0BagException@rosbag@@QEAA@AEBV01@@Z
	??0BagException@rosbag@@QEAA@AEBV?$basic_string@DU?$char_traits@D@std@@V?$allocator@D@2@@std@@@Z
	??0ClassLoaderException@ros1_class_loader@@QEAA@AEBV01@@Z
	??0CreateClassException@ros1_class_loader@@QEAA@AEBV01@@Z
	??0CreateClassException@ros1_class_loader@@QEAA@AEBV?$basic_string@DU?$char_traits@D@std@@V?$allocator@D@2@@std@@@Z
	??0Exception@matlab@@QEAA@AEBV01@@Z
	??0Exception@ros@@QEAA@AEBV01@@Z
	??0NameList@ArrayFactory@data@matlab@@QEAA@PEAVNameListImpl@detail@23@@Z
	??0ReferenceHolder@data@matlab@@IEAA@PEAVReferenceImpl@detail@12@@Z
	??0ReferenceHolder@data@matlab@@IEAA@V?$shared_ptr@VReferenceImpl@detail@data@matlab@@@std@@@Z
	??0Struct@data@matlab@@AEAA@V?$shared_ptr@VReferenceImpl@detail@data@matlab@@@std@@@Z
	??0StructArray@data@matlab@@QEAA@$$QEAVArray@12@@Z
	??0bad_alloc@std@@QEAA@AEBV01@@Z
	??0bad_alloc_@exception_detail@mwboost@@QEAA@AEBU012@@Z
	??0bad_alloc_@exception_detail@mwboost@@QEAA@XZ
	??0bad_exception@std@@QEAA@AEBV01@@Z
	??0bad_exception_@exception_detail@mwboost@@QEAA@AEBU012@@Z
	??0bad_exception_@exception_detail@mwboost@@QEAA@XZ
	??0bad_function_call@mwboost@@QEAA@AEBV01@@Z
	??0bad_function_call@mwboost@@QEAA@XZ
	??0clone_base@exception_detail@mwboost@@QEAA@AEBV012@@Z
	??0error_code@system@mwboost@@QEAA@HAEBVerror_category@12@@Z
	??0exception@mwboost@@QEAA@AEBV01@@Z
	??0exception@std@@QEAA@AEBV01@@Z
	??0exception@std@@QEAA@QEBD@Z
	??0invalid_argument@std@@QEAA@AEBV01@@Z
	??0invalid_argument@std@@QEAA@PEBD@Z
	??0lock_error@mwboost@@QEAA@AEBV01@@Z
	??0lock_error@mwboost@@QEAA@HPEBD@Z
	??0logic_error@std@@QEAA@AEBV01@@Z
	??0runtime_error@std@@QEAA@AEBV01@@Z
	??0runtime_error@std@@QEAA@AEBV?$basic_string@DU?$char_traits@D@std@@V?$allocator@D@2@@1@@Z
	??0siam_main_FlightPlan_message@@QEAA@AEBV0@@Z
	??0siam_main_FlightPlan_message@@QEAA@XZ
	??0siam_main_msg_FlightPlan_common@@QEAA@AEBV0@@Z
	??0siam_main_msg_FlightPlan_common@@QEAA@XZ
	??0system_error@system@mwboost@@QEAA@AEBV012@@Z
	??0thread_exception@mwboost@@QEAA@AEBV01@@Z
	??0thread_resource_error@mwboost@@QEAA@AEBV01@@Z
	??0thread_resource_error@mwboost@@QEAA@XZ
	??1?$ArrayElementTypedRef@C$00@data@matlab@@QEAA@XZ
	??1?$ArrayElementTypedRef@G$00@data@matlab@@QEAA@XZ
	??1?$ArrayElementTypedRef@VArray@data@matlab@@$0A@@data@matlab@@QEAA@XZ
	??1?$ArrayElementTypedRef@VStruct@data@matlab@@$00@data@matlab@@QEAA@XZ
	??1?$ArrayElementTypedRef@VStruct@data@matlab@@$0A@@data@matlab@@QEAA@XZ
	??1?$ArrayElementTypedRef@_K$00@data@matlab@@QEAA@XZ
	??1?$ArrayException@VException@matlab@@$00@detail@data@matlab@@UEAA@XZ
	??1?$ArrayException@VException@matlab@@$01@detail@data@matlab@@UEAA@XZ
	??1?$ArrayException@VException@matlab@@$02@detail@data@matlab@@UEAA@XZ
	??1?$ArrayException@VException@matlab@@$04@detail@data@matlab@@UEAA@XZ
	??1?$ArrayException@VException@matlab@@$05@detail@data@matlab@@UEAA@XZ
	??1?$ArrayException@VException@matlab@@$06@detail@data@matlab@@UEAA@XZ
	??1?$ArrayException@VException@matlab@@$07@detail@data@matlab@@UEAA@XZ
	??1?$ArrayException@VException@matlab@@$08@detail@data@matlab@@UEAA@XZ
	??1?$ArrayException@VException@matlab@@$09@detail@data@matlab@@UEAA@XZ
	??1?$ArrayException@VException@matlab@@$0BA@@detail@data@matlab@@UEAA@XZ
	??1?$ArrayException@VException@matlab@@$0BC@@detail@data@matlab@@UEAA@XZ
	??1?$ArrayException@VException@matlab@@$0BD@@detail@data@matlab@@UEAA@XZ
	??1?$ArrayException@VException@matlab@@$0BE@@detail@data@matlab@@UEAA@XZ
	??1?$ArrayException@VException@matlab@@$0BF@@detail@data@matlab@@UEAA@XZ
	??1?$ArrayException@VException@matlab@@$0BG@@detail@data@matlab@@UEAA@XZ
	??1?$ArrayException@VException@matlab@@$0BH@@detail@data@matlab@@UEAA@XZ
	??1?$ArrayException@VException@matlab@@$0BI@@detail@data@matlab@@UEAA@XZ
	??1?$ArrayException@VException@matlab@@$0BJ@@detail@data@matlab@@UEAA@XZ
	??1?$ArrayException@VException@matlab@@$0BK@@detail@data@matlab@@UEAA@XZ
	??1?$ArrayException@VException@matlab@@$0BL@@detail@data@matlab@@UEAA@XZ
	??1?$ArrayException@VException@matlab@@$0BM@@detail@data@matlab@@UEAA@XZ
	??1?$ArrayException@VException@matlab@@$0BN@@detail@data@matlab@@UEAA@XZ
	??1?$ArrayException@VException@matlab@@$0N@@detail@data@matlab@@UEAA@XZ
	??1?$ArrayException@VException@matlab@@$0O@@detail@data@matlab@@UEAA@XZ
	??1?$ArrayException@VException@matlab@@$0P@@detail@data@matlab@@UEAA@XZ
	??1?$MATLABROSMsgInterface@U?$FlightPlan_@V?$allocator@X@std@@@siam_main@@@@UEAA@XZ
	??1?$MessageEvent@$$CBU?$FlightPlan_@V?$allocator@X@std@@@siam_main@@@ros@@QEAA@XZ
	??1?$PreDeserializeParams@U?$FlightPlan_@V?$allocator@X@std@@@siam_main@@@serialization@ros@@QEAA@XZ
	??1?$ROSPublisherImpl@U?$FlightPlan_@V?$allocator@X@std@@@siam_main@@Vsiam_main_msg_FlightPlan_common@@@@UEAA@XZ
	??1?$ROSSubscriberImpl@U?$FlightPlan_@V?$allocator@X@std@@@siam_main@@V?$shared_ptr@$$CBU?$FlightPlan_@V?$allocator@X@std@@@siam_main@@@mwboost@@Vsiam_main_msg_FlightPlan_common@@@@UEAA@XZ
	??1?$TypedArray@C@data@matlab@@UEAA@XZ
	??1?$TypedArray@G@data@matlab@@UEAA@XZ
	??1?$TypedArray@_K@data@matlab@@UEAA@XZ
	??1?$TypedArray@_S@data@matlab@@UEAA@XZ
	??1?$TypedIterator@$$CBVStruct@data@matlab@@@data@matlab@@QEAA@XZ
	??1?$_String_alloc@U?$_String_base_types@DV?$allocator@D@std@@@std@@@std@@QEAA@XZ
	??1?$_Tree@V?$_Tmap_traits@V?$basic_string@DU?$char_traits@D@std@@V?$allocator@D@2@@std@@V12@U?$less@V?$basic_string@DU?$char_traits@D@std@@V?$allocator@D@2@@std@@@2@V?$allocator@U?$pair@$$CBV?$basic_string@DU?$char_traits@D@std@@V?$allocator@D@2@@std@@V12@@std@@@2@$0A@@std@@@std@@QEAA@XZ
	??1?$_Tree_comp_alloc@V?$_Tmap_traits@V?$basic_string@DU?$char_traits@D@std@@V?$allocator@D@2@@std@@V12@U?$less@V?$basic_string@DU?$char_traits@D@std@@V?$allocator@D@2@@std@@@2@V?$allocator@U?$pair@$$CBV?$basic_string@DU?$char_traits@D@std@@V?$allocator@D@2@@std@@V12@@std@@@2@$0A@@std@@@std@@QEAA@XZ
	??1?$_Tree_comp_alloc@V?$_Tset_traits@UIndexEntry@rosbag@@U?$less@UIndexEntry@rosbag@@@std@@V?$allocator@UIndexEntry@rosbag@@@4@$00@std@@@std@@QEAA@XZ
	??1?$_Uninitialized_backout_al@PEAU?$pair@W4FunctionType@detail@data@matlab@@V?$basic_string@DU?$char_traits@D@std@@V?$allocator@D@2@@std@@@std@@V?$allocator@U?$pair@W4FunctionType@detail@data@matlab@@V?$basic_string@DU?$char_traits@D@std@@V?$allocator@D@2@@std@@@std@@@2@@std@@QEAA@XZ
	??1?$_Uninitialized_backout_al@PEAV?$basic_string@DU?$char_traits@D@std@@V?$allocator@D@2@@std@@V?$allocator@V?$basic_string@DU?$char_traits@D@std@@V?$allocator@D@2@@std@@@2@@std@@QEAA@XZ
	??1?$_Uninitialized_backout_al@PEAVArray@data@matlab@@V?$allocator@VArray@data@matlab@@@std@@@std@@QEAA@XZ
	??1?$basic_string@DU?$char_traits@D@std@@V?$allocator@D@2@@std@@QEAA@XZ
	??1?$clone_impl@Ubad_alloc_@exception_detail@mwboost@@@exception_detail@mwboost@@UEAA@XZ
	??1?$clone_impl@Ubad_exception_@exception_detail@mwboost@@@exception_detail@mwboost@@UEAA@XZ
	??1?$function0@V?$shared_ptr@U?$FlightPlan_@V?$allocator@X@std@@@siam_main@@@mwboost@@@mwboost@@QEAA@XZ
	??1?$function1@XAEBVSingleSubscriberPublisher@ros@@@mwboost@@QEAA@XZ
	??1?$function@$$A6A?AV?$shared_ptr@U?$FlightPlan_@V?$allocator@X@std@@@siam_main@@@mwboost@@XZ@mwboost@@QEAA@XZ
	??1?$function@$$A6A?AVSerializedMessage@ros@@XZ@mwboost@@QEAA@XZ
	??1?$function@$$A6AXAEBV?$shared_ptr@$$CBU?$FlightPlan_@V?$allocator@X@std@@@siam_main@@@mwboost@@@Z@mwboost@@QEAA@XZ
	??1?$function@$$A6AXAEBVSingleSubscriberPublisher@ros@@@Z@mwboost@@QEAA@XZ
	??1?$function@$$A6AXV?$shared_ptr@$$CBU?$FlightPlan_@V?$allocator@X@std@@@siam_main@@@mwboost@@@Z@mwboost@@QEAA@XZ
	??1?$map@V?$basic_string@DU?$char_traits@D@std@@V?$allocator@D@2@@std@@V12@U?$less@V?$basic_string@DU?$char_traits@D@std@@V?$allocator@D@2@@std@@@2@V?$allocator@U?$pair@$$CBV?$basic_string@DU?$char_traits@D@std@@V?$allocator@D@2@@std@@V12@@std@@@2@@std@@QEAA@XZ
	??1?$pair@$$CBV?$basic_string@DU?$char_traits@D@std@@V?$allocator@D@2@@std@@V?$shared_ptr@VMATLABROSMsgInterfaceBase@@@mwboost@@@std@@QEAA@XZ
	??1?$pair@W4FunctionType@detail@data@matlab@@V?$basic_string@DU?$char_traits@D@std@@V?$allocator@D@2@@std@@@std@@QEAA@XZ
	??1?$refcount_ptr@Uerror_info_container@exception_detail@mwboost@@@exception_detail@mwboost@@QEAA@XZ
	??1?$shared_ptr@$$CBU?$FlightPlan_@V?$allocator@X@std@@@siam_main@@@mwboost@@QEAA@XZ
	??1?$shared_ptr@$$CBX@mwboost@@QEAA@XZ
	??1?$shared_ptr@U?$FlightPlan_@V?$allocator@X@std@@@siam_main@@@mwboost@@QEAA@XZ
	??1?$shared_ptr@V?$MATLABROSMsgInterface@U?$Point_@V?$allocator@X@std@@@geometry_msgs@@@@@mwboost@@QEAA@XZ
	??1?$shared_ptr@V?$ROSBagWriterImpl@U?$FlightPlan_@V?$allocator@X@std@@@siam_main@@Vsiam_main_msg_FlightPlan_common@@@@@std@@QEAA@XZ
	??1?$shared_ptr@V?$ROSPublisherImpl@U?$FlightPlan_@V?$allocator@X@std@@@siam_main@@Vsiam_main_msg_FlightPlan_common@@@@@std@@QEAA@XZ
	??1?$shared_ptr@V?$ROSSubscriberImpl@U?$FlightPlan_@V?$allocator@X@std@@@siam_main@@V?$shared_ptr@$$CBU?$FlightPlan_@V?$allocator@X@std@@@siam_main@@@mwboost@@Vsiam_main_msg_FlightPlan_common@@@@@std@@QEAA@XZ
	??1?$shared_ptr@V?$SubscriptionCallbackHelperT@AEBV?$shared_ptr@$$CBU?$FlightPlan_@V?$allocator@X@std@@@siam_main@@@mwboost@@X@ros@@@mwboost@@QEAA@XZ
	??1?$shared_ptr@V?$map@V?$basic_string@DU?$char_traits@D@std@@V?$allocator@D@2@@std@@V12@U?$less@V?$basic_string@DU?$char_traits@D@std@@V?$allocator@D@2@@std@@@2@V?$allocator@U?$pair@$$CBV?$basic_string@DU?$char_traits@D@std@@V?$allocator@D@2@@std@@V12@@std@@@2@@std@@@mwboost@@QEAA@XZ
	??1?$shared_ptr@VArrayFactoryImpl@impl@data@matlab@@@std@@QEAA@XZ
	??1?$shared_ptr@VNodeHandle@ros@@@std@@QEAA@XZ
	??1?$shared_ptr@VPublisher@ros@@@std@@QEAA@XZ
	??1?$shared_ptr@VReferenceImpl@detail@data@matlab@@@std@@QEAA@XZ
	??1?$shared_ptr@VSubscriber@ros@@@std@@QEAA@XZ
	??1?$unique_lock@Vmutex@mwboost@@@mwboost@@QEAA@XZ
	??1?$unique_lock@Vrecursive_mutex@mwboost@@@mwboost@@QEAA@XZ
	??1?$vector@PEAVClassLoader@ros1_class_loader@@V?$allocator@PEAVClassLoader@ros1_class_loader@@@std@@@std@@QEAA@XZ
	??1?$vector@U?$Point_@V?$allocator@X@std@@@geometry_msgs@@V?$allocator@U?$Point_@V?$allocator@X@std@@@geometry_msgs@@@std@@@std@@QEAA@XZ
	??1?$vector@V?$basic_string@DU?$char_traits@D@std@@V?$allocator@D@2@@std@@V?$allocator@V?$basic_string@DU?$char_traits@D@std@@V?$allocator@D@2@@std@@@2@@std@@QEAA@XZ
	??1?$vector@VArray@data@matlab@@V?$allocator@VArray@data@matlab@@@std@@@std@@QEAA@XZ
	??1?$vector@_KV?$allocator@_K@std@@@std@@QEAA@XZ
	??1?$wrapexcept@Vbad_function_call@mwboost@@@mwboost@@UEAA@XZ
	??1?$wrapexcept@Vlock_error@mwboost@@@mwboost@@UEAA@XZ
	??1?$wrapexcept@Vthread_resource_error@mwboost@@@mwboost@@UEAA@XZ
	??1Array@data@matlab@@UEAA@XZ
	??1BagException@rosbag@@UEAA@XZ
	??1CharArray@data@matlab@@UEAA@XZ
	??1CreateClassException@ros1_class_loader@@UEAA@XZ
	??1Exception@matlab@@UEAA@XZ
	??1NameList@ArrayFactory@data@matlab@@QEAA@XZ
	??1Struct@data@matlab@@QEAA@XZ
	??1StructArray@data@matlab@@UEAA@XZ
	??1_Ref_count_base@std@@UEAA@XZ
	??1bad_alloc_@exception_detail@mwboost@@UEAA@XZ
	??1bad_exception_@exception_detail@mwboost@@UEAA@XZ
	??1bad_function_call@mwboost@@UEAA@XZ
	??1clone_base@exception_detail@mwboost@@UEAA@XZ
	??1deleter@?$wrapexcept@Vbad_function_call@mwboost@@@mwboost@@QEAA@XZ
	??1deleter@?$wrapexcept@Vlock_error@mwboost@@@mwboost@@QEAA@XZ
	??1deleter@?$wrapexcept@Vthread_resource_error@mwboost@@@mwboost@@QEAA@XZ
	??1exception@std@@UEAA@XZ
	??1invalid_argument@std@@UEAA@XZ
	??1lock_error@mwboost@@UEAA@XZ
	??1runtime_error@std@@UEAA@XZ
	??1shared_count@detail@mwboost@@QEAA@XZ
	??1siam_main_FlightPlan_message@@UEAA@XZ
	??1siam_main_msg_FlightPlan_common@@UEAA@XZ
	??1thread_resource_error@mwboost@@UEAA@XZ
	??4?$ArrayElementTypedRef@VArray@data@matlab@@$0A@@data@matlab@@QEAAAEAV012@VArray@12@@Z
	??4?$FlightPlan_@V?$allocator@X@std@@@siam_main@@QEAAAEAU01@AEBU01@@Z
	??4?$MATLABROSMsgInterface@U?$FlightPlan_@V?$allocator@X@std@@@siam_main@@@@QEAAAEAV0@AEBV0@@Z
	??4?$basic_string@DU?$char_traits@D@std@@V?$allocator@D@2@@std@@QEAAAEAV01@$$QEAV01@@Z
	??4?$basic_string@DU?$char_traits@D@std@@V?$allocator@D@2@@std@@QEAAAEAV01@AEBV01@@Z
	??4?$refcount_ptr@Uerror_info_container@exception_detail@mwboost@@@exception_detail@mwboost@@QEAAAEAV012@AEBV012@@Z
	??4?$shared_ptr@$$CBU?$FlightPlan_@V?$allocator@X@std@@@siam_main@@@mwboost@@QEAAAEAV01@AEBV01@@Z
	??4?$shared_ptr@U?$FlightPlan_@V?$allocator@X@std@@@siam_main@@@mwboost@@QEAAAEAV01@$$QEAV01@@Z
	??4?$shared_ptr@U?$FlightPlan_@V?$allocator@X@std@@@siam_main@@@mwboost@@QEAAAEAV01@AEBV01@@Z
	??4?$shared_ptr@V?$map@V?$basic_string@DU?$char_traits@D@std@@V?$allocator@D@2@@std@@V12@U?$less@V?$basic_string@DU?$char_traits@D@std@@V?$allocator@D@2@@std@@@2@V?$allocator@U?$pair@$$CBV?$basic_string@DU?$char_traits@D@std@@V?$allocator@D@2@@std@@V12@@std@@@2@@std@@@mwboost@@QEAAAEAV01@$$QEAV01@@Z
	??4?$shared_ptr@V?$map@V?$basic_string@DU?$char_traits@D@std@@V?$allocator@D@2@@std@@V12@U?$less@V?$basic_string@DU?$char_traits@D@std@@V?$allocator@D@2@@std@@@2@V?$allocator@U?$pair@$$CBV?$basic_string@DU?$char_traits@D@std@@V?$allocator@D@2@@std@@V12@@std@@@2@@std@@@mwboost@@QEAAAEAV01@AEBV01@@Z
	??4?$shared_ptr@VArrayFactoryImpl@impl@data@matlab@@@std@@QEAAAEAV01@$$QEAV01@@Z
	??4?$shared_ptr@VArrayImpl@impl@data@matlab@@@std@@QEAAAEAV01@$$QEAV01@@Z
	??4?$shared_ptr@VIteratorImpl@detail@data@matlab@@@std@@QEAAAEAV01@$$QEAV01@@Z
	??4?$shared_ptr@VPublisher@ros@@@std@@QEAAAEAV01@$$QEAV01@@Z
	??4?$shared_ptr@VSubscriber@ros@@@std@@QEAAAEAV01@$$QEAV01@@Z
	??4?$vector@U?$Point_@V?$allocator@X@std@@@geometry_msgs@@V?$allocator@U?$Point_@V?$allocator@X@std@@@geometry_msgs@@@std@@@std@@QEAAAEAV01@AEBV01@@Z
	??4Array@data@matlab@@QEAAAEAV012@$$QEAV012@@Z
	??4siam_main_FlightPlan_message@@QEAAAEAV0@AEBV0@@Z
	??4siam_main_msg_FlightPlan_common@@QEAAAEAV0@AEBV0@@Z
	??8system@mwboost@@YA_NAEBVerror_condition@01@0@Z
	??A?$ArrayElementTypedRef@VStruct@data@matlab@@$0A@@data@matlab@@QEAA?AV?$ArrayElementTypedRef@VArray@data@matlab@@$0A@@12@V?$basic_string@DU?$char_traits@D@std@@V?$allocator@D@2@@std@@@Z
	??A?$TypedArray@C@data@matlab@@QEBA?AV?$ArrayElementTypedRef@C$00@12@_K@Z
	??A?$TypedArray@G@data@matlab@@QEBA?AV?$ArrayElementTypedRef@G$00@12@_K@Z
	??A?$TypedArray@VStruct@data@matlab@@@data@matlab@@QEAA?AV?$ArrayElementTypedRef@VStruct@data@matlab@@$0A@@12@_K@Z
	??A?$TypedArray@VStruct@data@matlab@@@data@matlab@@QEBA?AV?$ArrayElementTypedRef@VStruct@data@matlab@@$00@12@_K@Z
	??A?$TypedArray@_K@data@matlab@@QEBA?AV?$ArrayElementTypedRef@_K$00@12@_K@Z
	??AStruct@data@matlab@@QEBA?AVArray@12@V?$basic_string@DU?$char_traits@D@std@@V?$allocator@D@2@@std@@@Z
	??B?$ArrayElementTypedRef@VStruct@data@matlab@@$00@data@matlab@@QEBA?AVStruct@12@XZ
	??B?$ArrayElementTypedRef@_K$00@data@matlab@@QEBA_KXZ
	??B?$Reference@VStruct@data@matlab@@@data@matlab@@QEBA?AVStruct@12@XZ
	??C?$reverse_iterator@V?$_Vector_const_iterator@V?$_Vector_val@U?$_Simple_types@U?$pair@W4FunctionType@detail@data@matlab@@V?$basic_string@DU?$char_traits@D@std@@V?$allocator@D@2@@std@@@std@@@std@@@std@@@std@@@std@@QEBAPEBU?$pair@W4FunctionType@detail@data@matlab@@V?$basic_string@DU?$char_traits@D@std@@V?$allocator@D@2@@std@@@1@XZ
	??E?$_Tree_unchecked_const_iterator@V?$_Tree_val@U?$_Tree_simple_types@U?$pair@$$CBII@std@@@std@@@std@@U_Iterator_base0@2@@std@@QEAAAEAV01@XZ
	??E?$_Tree_unchecked_const_iterator@V?$_Tree_val@U?$_Tree_simple_types@U?$pair@$$CBIPEAUConnectionInfo@rosbag@@@std@@@std@@@std@@U_Iterator_base0@2@@std@@QEAAAEAV01@XZ
	??E?$_Tree_unchecked_const_iterator@V?$_Tree_val@U?$_Tree_simple_types@U?$pair@$$CBIV?$multiset@UIndexEntry@rosbag@@U?$less@UIndexEntry@rosbag@@@std@@V?$allocator@UIndexEntry@rosbag@@@4@@std@@@std@@@std@@@std@@U_Iterator_base0@2@@std@@QEAAAEAV01@XZ
	??E?$_Tree_unchecked_const_iterator@V?$_Tree_val@U?$_Tree_simple_types@U?$pair@$$CBV?$basic_string@DU?$char_traits@D@std@@V?$allocator@D@2@@std@@I@std@@@std@@@std@@U_Iterator_base0@2@@std@@QEAAAEAV01@XZ
	??E?$_Tree_unchecked_const_iterator@V?$_Tree_val@U?$_Tree_simple_types@U?$pair@$$CBV?$basic_string@DU?$char_traits@D@std@@V?$allocator@D@2@@std@@PEAVAbstractMetaObjectBase@impl@ros1_class_loader@@@std@@@std@@@std@@U_Iterator_base0@2@@std@@QEAAAEAV01@XZ
	??E?$_Tree_unchecked_const_iterator@V?$_Tree_val@U?$_Tree_simple_types@U?$pair@$$CBV?$basic_string@DU?$char_traits@D@std@@V?$allocator@D@2@@std@@V12@@std@@@std@@@std@@U_Iterator_base0@2@@std@@QEAAAEAV01@XZ
	??E?$_Tree_unchecked_const_iterator@V?$_Tree_val@U?$_Tree_simple_types@U?$pair@$$CBV?$basic_string@DU?$char_traits@D@std@@V?$allocator@D@2@@std@@V?$shared_ptr@VMATLABROSMsgInterfaceBase@@@mwboost@@@std@@@std@@@std@@U_Iterator_base0@2@@std@@QEAAAEAV01@XZ
	??E?$_Tree_unchecked_const_iterator@V?$_Tree_val@U?$_Tree_simple_types@U?$pair@$$CBV?$map@V?$basic_string@DU?$char_traits@D@std@@V?$allocator@D@2@@std@@V12@U?$less@V?$basic_string@DU?$char_traits@D@std@@V?$allocator@D@2@@std@@@2@V?$allocator@U?$pair@$$CBV?$basic_string@DU?$char_traits@D@std@@V?$allocator@D@2@@std@@V12@@std@@@2@@std@@I@std@@@std@@@std@@U_Iterator_base0@2@@std@@QEAAAEAV01@XZ
	??E?$_Tree_unchecked_const_iterator@V?$_Tree_val@U?$_Tree_simple_types@UIndexEntry@rosbag@@@std@@@std@@U_Iterator_base0@2@@std@@QEAAAEAV01@XZ
	??F?$_Tree_unchecked_const_iterator@V?$_Tree_val@U?$_Tree_simple_types@U?$pair@$$CBII@std@@@std@@@std@@U_Iterator_base0@2@@std@@QEAAAEAV01@XZ
	??F?$_Tree_unchecked_const_iterator@V?$_Tree_val@U?$_Tree_simple_types@U?$pair@$$CBIPEAUConnectionInfo@rosbag@@@std@@@std@@@std@@U_Iterator_base0@2@@std@@QEAAAEAV01@XZ
	??F?$_Tree_unchecked_const_iterator@V?$_Tree_val@U?$_Tree_simple_types@U?$pair@$$CBIV?$multiset@UIndexEntry@rosbag@@U?$less@UIndexEntry@rosbag@@@std@@V?$allocator@UIndexEntry@rosbag@@@4@@std@@@std@@@std@@@std@@U_Iterator_base0@2@@std@@QEAAAEAV01@XZ
	??F?$_Tree_unchecked_const_iterator@V?$_Tree_val@U?$_Tree_simple_types@U?$pair@$$CBV?$basic_string@DU?$char_traits@D@std@@V?$allocator@D@2@@std@@I@std@@@std@@@std@@U_Iterator_base0@2@@std@@QEAAAEAV01@XZ
	??F?$_Tree_unchecked_const_iterator@V?$_Tree_val@U?$_Tree_simple_types@U?$pair@$$CBV?$basic_string@DU?$char_traits@D@std@@V?$allocator@D@2@@std@@PEAVAbstractMetaObjectBase@impl@ros1_class_loader@@@std@@@std@@@std@@U_Iterator_base0@2@@std@@QEAAAEAV01@XZ
	??F?$_Tree_unchecked_const_iterator@V?$_Tree_val@U?$_Tree_simple_types@U?$pair@$$CBV?$basic_string@DU?$char_traits@D@std@@V?$allocator@D@2@@std@@V12@@std@@@std@@@std@@U_Iterator_base0@2@@std@@QEAAAEAV01@XZ
	??F?$_Tree_unchecked_const_iterator@V?$_Tree_val@U?$_Tree_simple_types@U?$pair@$$CBV?$basic_string@DU?$char_traits@D@std@@V?$allocator@D@2@@std@@V?$shared_ptr@VMATLABROSMsgInterfaceBase@@@mwboost@@@std@@@std@@@std@@U_Iterator_base0@2@@std@@QEAAAEAV01@XZ
	??F?$_Tree_unchecked_const_iterator@V?$_Tree_val@U?$_Tree_simple_types@U?$pair@$$CBV?$map@V?$basic_string@DU?$char_traits@D@std@@V?$allocator@D@2@@std@@V12@U?$less@V?$basic_string@DU?$char_traits@D@std@@V?$allocator@D@2@@std@@@2@V?$allocator@U?$pair@$$CBV?$basic_string@DU?$char_traits@D@std@@V?$allocator@D@2@@std@@V12@@std@@@2@@std@@I@std@@@std@@@std@@U_Iterator_base0@2@@std@@QEAAAEAV01@XZ
	??F?$_Tree_unchecked_const_iterator@V?$_Tree_val@U?$_Tree_simple_types@UIndexEntry@rosbag@@@std@@@std@@U_Iterator_base0@2@@std@@QEAAAEAV01@XZ
	??R<lambda_18bde30140702ba20a566c9dc393b8c0>@@QEBA@PEAVArrayImpl@impl@data@matlab@@@Z
	??R<lambda_1cc0c119369d3677f6f4efcaefc6d3c2>@@QEBA@PEAVIteratorImpl@detail@data@matlab@@@Z
	??R<lambda_2615407b98e1f3a14023b76f0dedc381>@@QEBA@PEAVReferenceImpl@detail@data@matlab@@@Z
	??R<lambda_49bc69670bef5877f460780ec06c4b58>@@QEBA@PEAVArrayImpl@impl@data@matlab@@@Z
	??R<lambda_9f3a4d0362104a3bede0405fafec76e1>@@QEBA@PEAVNameListImpl@detail@data@matlab@@@Z
	??R<lambda_a4c5f97d4391fb4c09103a727c16defd>@@QEBA@PEAVArrayFactoryImpl@impl@data@matlab@@@Z
	??R?$bind_t@VSerializedMessage@ros@@P6A?AV12@AEBU?$FlightPlan_@V?$allocator@X@std@@@siam_main@@@ZV?$list1@V?$reference_wrapper@U?$FlightPlan_@V?$allocator@X@std@@@siam_main@@@mwboost@@@_bi@mwboost@@@_bi@mwboost@@QEAA?AVSerializedMessage@ros@@XZ
	??R?$checked_array_deleter@E@mwboost@@QEBAXPEAE@Z
	??R?$function0@V?$shared_ptr@U?$FlightPlan_@V?$allocator@X@std@@@siam_main@@@mwboost@@@mwboost@@QEBA?AV?$shared_ptr@U?$FlightPlan_@V?$allocator@X@std@@@siam_main@@@1@XZ
	??R?$function1@XAEBV?$shared_ptr@$$CBU?$FlightPlan_@V?$allocator@X@std@@@siam_main@@@mwboost@@@mwboost@@QEBAXAEBV?$shared_ptr@$$CBU?$FlightPlan_@V?$allocator@X@std@@@siam_main@@@1@@Z
	??R?$function1@XV?$shared_ptr@$$CBU?$FlightPlan_@V?$allocator@X@std@@@siam_main@@@mwboost@@@mwboost@@QEBAXV?$shared_ptr@$$CBU?$FlightPlan_@V?$allocator@X@std@@@siam_main@@@1@@Z
	??_D?$clone_impl@Ubad_alloc_@exception_detail@mwboost@@@exception_detail@mwboost@@QEAAXXZ
	??_D?$clone_impl@Ubad_exception_@exception_detail@mwboost@@@exception_detail@mwboost@@QEAAXXZ
	?_Adjust_manually_vector_aligned@std@@YAXAEAPEAXAEA_K@Z
	?_Assign_rv_contents_with_alloc_always_equal@?$basic_string@DU?$char_traits@D@std@@V?$allocator@D@2@@std@@QEAAX$$QEAV12@U?$integral_constant@_N$00@2@@Z
	?_Atomic_fetch_sub_4@std@@YAKPECKKW4memory_order@1@@Z
	?_Become_small@?$basic_string@DU?$char_traits@D@std@@V?$allocator@D@2@@std@@QEAAXXZ
	?_Buy@?$vector@U?$Point_@V?$allocator@X@std@@@geometry_msgs@@V?$allocator@U?$Point_@V?$allocator@X@std@@@geometry_msgs@@@std@@@std@@AEAA_N_K@Z
	?_Buy@?$vector@U?$pair@W4FunctionType@detail@data@matlab@@V?$basic_string@DU?$char_traits@D@std@@V?$allocator@D@2@@std@@@std@@V?$allocator@U?$pair@W4FunctionType@detail@data@matlab@@V?$basic_string@DU?$char_traits@D@std@@V?$allocator@D@2@@std@@@std@@@2@@std@@AEAA_N_K@Z
	?_Buy@?$vector@V?$basic_string@DU?$char_traits@D@std@@V?$allocator@D@2@@std@@V?$allocator@V?$basic_string@DU?$char_traits@D@std@@V?$allocator@D@2@@std@@@2@@std@@AEAA_N_K@Z
	?_Buy@?$vector@VArray@data@matlab@@V?$allocator@VArray@data@matlab@@@std@@@std@@AEAA_N_K@Z
	?_Buy@?$vector@_KV?$allocator@_K@std@@@std@@AEAA_N_K@Z
	?_Buyheadnode@?$_Tree_comp_alloc@V?$_Tmap_traits@V?$basic_string@DU?$char_traits@D@std@@V?$allocator@D@2@@std@@V12@U?$less@V?$basic_string@DU?$char_traits@D@std@@V?$allocator@D@2@@std@@@2@V?$allocator@U?$pair@$$CBV?$basic_string@DU?$char_traits@D@std@@V?$allocator@D@2@@std@@V12@@std@@@2@$0A@@std@@@std@@QEAAPEAU?$_Tree_node@U?$pair@$$CBV?$basic_string@DU?$char_traits@D@std@@V?$allocator@D@2@@std@@V12@@std@@PEAX@2@XZ
	?_Buyheadnode@?$_Tree_comp_alloc@V?$_Tset_traits@UIndexEntry@rosbag@@U?$less@UIndexEntry@rosbag@@@std@@V?$allocator@UIndexEntry@rosbag@@@4@$00@std@@@std@@QEAAPEAU?$_Tree_node@UIndexEntry@rosbag@@PEAX@2@XZ
	?_Buynode0@?$_Tree_comp_alloc@V?$_Tmap_traits@IIU?$less@I@std@@V?$allocator@U?$pair@$$CBII@std@@@2@$0A@@std@@@std@@QEAAPEAU?$_Tree_node@U?$pair@$$CBII@std@@PEAX@2@XZ
	?_Buynode0@?$_Tree_comp_alloc@V?$_Tmap_traits@IPEAUConnectionInfo@rosbag@@U?$less@I@std@@V?$allocator@U?$pair@$$CBIPEAUConnectionInfo@rosbag@@@std@@@4@$0A@@std@@@std@@QEAAPEAU?$_Tree_node@U?$pair@$$CBIPEAUConnectionInfo@rosbag@@@std@@PEAX@2@XZ
	?_Buynode0@?$_Tree_comp_alloc@V?$_Tmap_traits@IV?$multiset@UIndexEntry@rosbag@@U?$less@UIndexEntry@rosbag@@@std@@V?$allocator@UIndexEntry@rosbag@@@4@@std@@U?$less@I@2@V?$allocator@U?$pair@$$CBIV?$multiset@UIndexEntry@rosbag@@U?$less@UIndexEntry@rosbag@@@std@@V?$allocator@UIndexEntry@rosbag@@@4@@std@@@std@@@2@$0A@@std@@@std@@QEAAPEAU?$_Tree_node@U?$pair@$$CBIV?$multiset@UIndexEntry@rosbag@@U?$less@UIndexEntry@rosbag@@@std@@V?$allocator@UIndexEntry@rosbag@@@4@@std@@@std@@PEAX@2@XZ
	?_Buynode0@?$_Tree_comp_alloc@V?$_Tmap_traits@V?$basic_string@DU?$char_traits@D@std@@V?$allocator@D@2@@std@@IU?$less@V?$basic_string@DU?$char_traits@D@std@@V?$allocator@D@2@@std@@@2@V?$allocator@U?$pair@$$CBV?$basic_string@DU?$char_traits@D@std@@V?$allocator@D@2@@std@@I@std@@@2@$0A@@std@@@std@@QEAAPEAU?$_Tree_node@U?$pair@$$CBV?$basic_string@DU?$char_traits@D@std@@V?$allocator@D@2@@std@@I@std@@PEAX@2@XZ
	?_Buynode0@?$_Tree_comp_alloc@V?$_Tmap_traits@V?$basic_string@DU?$char_traits@D@std@@V?$allocator@D@2@@std@@PEAVAbstractMetaObjectBase@impl@ros1_class_loader@@U?$less@V?$basic_string@DU?$char_traits@D@std@@V?$allocator@D@2@@std@@@2@V?$allocator@U?$pair@$$CBV?$basic_string@DU?$char_traits@D@std@@V?$allocator@D@2@@std@@PEAVAbstractMetaObjectBase@impl@ros1_class_loader@@@std@@@2@$0A@@std@@@std@@QEAAPEAU?$_Tree_node@U?$pair@$$CBV?$basic_string@DU?$char_traits@D@std@@V?$allocator@D@2@@std@@PEAVAbstractMetaObjectBase@impl@ros1_class_loader@@@std@@PEAX@2@XZ
	?_Buynode0@?$_Tree_comp_alloc@V?$_Tmap_traits@V?$basic_string@DU?$char_traits@D@std@@V?$allocator@D@2@@std@@V12@U?$less@V?$basic_string@DU?$char_traits@D@std@@V?$allocator@D@2@@std@@@2@V?$allocator@U?$pair@$$CBV?$basic_string@DU?$char_traits@D@std@@V?$allocator@D@2@@std@@V12@@std@@@2@$0A@@std@@@std@@QEAAPEAU?$_Tree_node@U?$pair@$$CBV?$basic_string@DU?$char_traits@D@std@@V?$allocator@D@2@@std@@V12@@std@@PEAX@2@XZ
	?_Buynode0@?$_Tree_comp_alloc@V?$_Tmap_traits@V?$basic_string@DU?$char_traits@D@std@@V?$allocator@D@2@@std@@V?$shared_ptr@VMATLABROSMsgInterfaceBase@@@mwboost@@U?$less@V?$basic_string@DU?$char_traits@D@std@@V?$allocator@D@2@@std@@@2@V?$allocator@U?$pair@$$CBV?$basic_string@DU?$char_traits@D@std@@V?$allocator@D@2@@std@@V?$shared_ptr@VMATLABROSMsgInterfaceBase@@@mwboost@@@std@@@2@$0A@@std@@@std@@QEAAPEAU?$_Tree_node@U?$pair@$$CBV?$basic_string@DU?$char_traits@D@std@@V?$allocator@D@2@@std@@V?$shared_ptr@VMATLABROSMsgInterfaceBase@@@mwboost@@@std@@PEAX@2@XZ
	?_Buynode0@?$_Tree_comp_alloc@V?$_Tmap_traits@V?$map@V?$basic_string@DU?$char_traits@D@std@@V?$allocator@D@2@@std@@V12@U?$less@V?$basic_string@DU?$char_traits@D@std@@V?$allocator@D@2@@std@@@2@V?$allocator@U?$pair@$$CBV?$basic_string@DU?$char_traits@D@std@@V?$allocator@D@2@@std@@V12@@std@@@2@@std@@IU?$less@V?$map@V?$basic_string@DU?$char_traits@D@std@@V?$allocator@D@2@@std@@V12@U?$less@V?$basic_string@DU?$char_traits@D@std@@V?$allocator@D@2@@std@@@2@V?$allocator@U?$pair@$$CBV?$basic_string@DU?$char_traits@D@std@@V?$allocator@D@2@@std@@V12@@std@@@2@@std@@@2@V?$allocator@U?$pair@$$CBV?$map@V?$basic_string@DU?$char_traits@D@std@@V?$allocator@D@2@@std@@V12@U?$less@V?$basic_string@DU?$char_traits@D@std@@V?$allocator@D@2@@std@@@2@V?$allocator@U?$pair@$$CBV?$basic_string@DU?$char_traits@D@std@@V?$allocator@D@2@@std@@V12@@std@@@2@@std@@I@std@@@2@$0A@@std@@@std@@QEAAPEAU?$_Tree_node@U?$pair@$$CBV?$map@V?$basic_string@DU?$char_traits@D@std@@V?$allocator@D@2@@std@@V12@U?$less@V?$basic_string@DU?$char_traits@D@std@@V?$allocator@D@2@@std@@@2@V?$allocator@U?$pair@$$CBV?$basic_string@DU?$char_traits@D@std@@V?$allocator@D@2@@std@@V12@@std@@@2@@std@@I@std@@PEAX@2@XZ
	?_Buynode0@?$_Tree_comp_alloc@V?$_Tset_traits@UIndexEntry@rosbag@@U?$less@UIndexEntry@rosbag@@@std@@V?$allocator@UIndexEntry@rosbag@@@4@$00@std@@@std@@QEAAPEAU?$_Tree_node@UIndexEntry@rosbag@@PEAX@2@XZ
	?_Calculate_growth@?$basic_string@DU?$char_traits@D@std@@V?$allocator@D@2@@std@@QEBA_K_K@Z
	?_Calculate_growth@?$vector@U?$Point_@V?$allocator@X@std@@@geometry_msgs@@V?$allocator@U?$Point_@V?$allocator@X@std@@@geometry_msgs@@@std@@@std@@AEBA_K_K@Z
	?_Calculate_growth@?$vector@V?$basic_string@DU?$char_traits@D@std@@V?$allocator@D@2@@std@@V?$allocator@V?$basic_string@DU?$char_traits@D@std@@V?$allocator@D@2@@std@@@2@@std@@AEBA_K_K@Z
	?_Change_array@?$vector@U?$Point_@V?$allocator@X@std@@@geometry_msgs@@V?$allocator@U?$Point_@V?$allocator@X@std@@@geometry_msgs@@@std@@@std@@AEAAXQEAU?$Point_@V?$allocator@X@std@@@geometry_msgs@@_K1@Z
	?_Change_array@?$vector@V?$basic_string@DU?$char_traits@D@std@@V?$allocator@D@2@@std@@V?$allocator@V?$basic_string@DU?$char_traits@D@std@@V?$allocator@D@2@@std@@@2@@std@@AEAAXQEAV?$basic_string@DU?$char_traits@D@std@@V?$allocator@D@2@@2@_K1@Z
	?_Construct_lv_contents@?$basic_string@DU?$char_traits@D@std@@V?$allocator@D@2@@std@@QEAAXAEBV12@@Z
	?_Decref@_Ref_count_base@std@@QEAAXXZ
	?_Delete_this@?$_Ref_count_obj@V?$ROSBagWriterImpl@U?$FlightPlan_@V?$allocator@X@std@@@siam_main@@Vsiam_main_msg_FlightPlan_common@@@@@std@@EEAAXXZ
	?_Delete_this@?$_Ref_count_obj@V?$ROSPublisherImpl@U?$FlightPlan_@V?$allocator@X@std@@@siam_main@@Vsiam_main_msg_FlightPlan_common@@@@@std@@EEAAXXZ
	?_Delete_this@?$_Ref_count_obj@V?$ROSSubscriberImpl@U?$FlightPlan_@V?$allocator@X@std@@@siam_main@@V?$shared_ptr@$$CBU?$FlightPlan_@V?$allocator@X@std@@@siam_main@@@mwboost@@Vsiam_main_msg_FlightPlan_common@@@@@std@@EEAAXXZ
	?_Delete_this@?$_Ref_count_obj@VPublisher@ros@@@std@@EEAAXXZ
	?_Delete_this@?$_Ref_count_obj@VSubscriber@ros@@@std@@EEAAXXZ
	?_Delete_this@?$_Ref_count_resource@PEAVArrayFactoryImpl@impl@data@matlab@@V<lambda_a4c5f97d4391fb4c09103a727c16defd>@@@std@@EEAAXXZ
	?_Delete_this@?$_Ref_count_resource@PEAVArrayImpl@impl@data@matlab@@V<lambda_18bde30140702ba20a566c9dc393b8c0>@@@std@@EEAAXXZ
	?_Delete_this@?$_Ref_count_resource@PEAVArrayImpl@impl@data@matlab@@V<lambda_49bc69670bef5877f460780ec06c4b58>@@@std@@EEAAXXZ
	?_Delete_this@?$_Ref_count_resource@PEAVIteratorImpl@detail@data@matlab@@V<lambda_1cc0c119369d3677f6f4efcaefc6d3c2>@@@std@@EEAAXXZ
	?_Delete_this@?$_Ref_count_resource@PEAVNameListImpl@detail@data@matlab@@V<lambda_9f3a4d0362104a3bede0405fafec76e1>@@@std@@EEAAXXZ
	?_Delete_this@?$_Ref_count_resource@PEAVReferenceImpl@detail@data@matlab@@V<lambda_2615407b98e1f3a14023b76f0dedc381>@@@std@@EEAAXXZ
	?_Destroy@?$_Ref_count_obj@V?$ROSBagWriterImpl@U?$FlightPlan_@V?$allocator@X@std@@@siam_main@@Vsiam_main_msg_FlightPlan_common@@@@@std@@EEAAXXZ
	?_Destroy@?$_Ref_count_obj@V?$ROSPublisherImpl@U?$FlightPlan_@V?$allocator@X@std@@@siam_main@@Vsiam_main_msg_FlightPlan_common@@@@@std@@EEAAXXZ
	?_Destroy@?$_Ref_count_obj@V?$ROSSubscriberImpl@U?$FlightPlan_@V?$allocator@X@std@@@siam_main@@V?$shared_ptr@$$CBU?$FlightPlan_@V?$allocator@X@std@@@siam_main@@@mwboost@@Vsiam_main_msg_FlightPlan_common@@@@@std@@EEAAXXZ
	?_Destroy@?$_Ref_count_obj@VPublisher@ros@@@std@@EEAAXXZ
	?_Destroy@?$_Ref_count_obj@VSubscriber@ros@@@std@@EEAAXXZ
	?_Destroy@?$_Ref_count_resource@PEAVArrayFactoryImpl@impl@data@matlab@@V<lambda_a4c5f97d4391fb4c09103a727c16defd>@@@std@@EEAAXXZ
	?_Destroy@?$_Ref_count_resource@PEAVArrayImpl@impl@data@matlab@@V<lambda_18bde30140702ba20a566c9dc393b8c0>@@@std@@EEAAXXZ
	?_Destroy@?$_Ref_count_resource@PEAVArrayImpl@impl@data@matlab@@V<lambda_49bc69670bef5877f460780ec06c4b58>@@@std@@EEAAXXZ
	?_Destroy@?$_Ref_count_resource@PEAVIteratorImpl@detail@data@matlab@@V<lambda_1cc0c119369d3677f6f4efcaefc6d3c2>@@@std@@EEAAXXZ
	?_Destroy@?$_Ref_count_resource@PEAVNameListImpl@detail@data@matlab@@V<lambda_9f3a4d0362104a3bede0405fafec76e1>@@@std@@EEAAXXZ
	?_Destroy@?$_Ref_count_resource@PEAVReferenceImpl@detail@data@matlab@@V<lambda_2615407b98e1f3a14023b76f0dedc381>@@@std@@EEAAXXZ
	?_Destroy@?$vector@U?$Point_@V?$allocator@X@std@@@geometry_msgs@@V?$allocator@U?$Point_@V?$allocator@X@std@@@geometry_msgs@@@std@@@std@@AEAAXPEAU?$Point_@V?$allocator@X@std@@@geometry_msgs@@0@Z
	?_Destroy@?$vector@V?$basic_string@DU?$char_traits@D@std@@V?$allocator@D@2@@std@@V?$allocator@V?$basic_string@DU?$char_traits@D@std@@V?$allocator@D@2@@std@@@2@@std@@AEAAXPEAV?$basic_string@DU?$char_traits@D@std@@V?$allocator@D@2@@2@0@Z
	?_Destroy_if_node@?$_Tree@V?$_Tmap_traits@IIU?$less@I@std@@V?$allocator@U?$pair@$$CBII@std@@@2@$0A@@std@@@std@@IEAAXPEAU?$_Tree_node@U?$pair@$$CBII@std@@PEAX@2@@Z
	?_Destroy_if_node@?$_Tree@V?$_Tmap_traits@IPEAUConnectionInfo@rosbag@@U?$less@I@std@@V?$allocator@U?$pair@$$CBIPEAUConnectionInfo@rosbag@@@std@@@4@$0A@@std@@@std@@IEAAXPEAU?$_Tree_node@U?$pair@$$CBIPEAUConnectionInfo@rosbag@@@std@@PEAX@2@@Z
	?_Destroy_if_node@?$_Tree@V?$_Tmap_traits@IV?$multiset@UIndexEntry@rosbag@@U?$less@UIndexEntry@rosbag@@@std@@V?$allocator@UIndexEntry@rosbag@@@4@@std@@U?$less@I@2@V?$allocator@U?$pair@$$CBIV?$multiset@UIndexEntry@rosbag@@U?$less@UIndexEntry@rosbag@@@std@@V?$allocator@UIndexEntry@rosbag@@@4@@std@@@std@@@2@$0A@@std@@@std@@IEAAXPEAU?$_Tree_node@U?$pair@$$CBIV?$multiset@UIndexEntry@rosbag@@U?$less@UIndexEntry@rosbag@@@std@@V?$allocator@UIndexEntry@rosbag@@@4@@std@@@std@@PEAX@2@@Z
	?_Destroy_if_node@?$_Tree@V?$_Tmap_traits@V?$basic_string@DU?$char_traits@D@std@@V?$allocator@D@2@@std@@IU?$less@V?$basic_string@DU?$char_traits@D@std@@V?$allocator@D@2@@std@@@2@V?$allocator@U?$pair@$$CBV?$basic_string@DU?$char_traits@D@std@@V?$allocator@D@2@@std@@I@std@@@2@$0A@@std@@@std@@IEAAXPEAU?$_Tree_node@U?$pair@$$CBV?$basic_string@DU?$char_traits@D@std@@V?$allocator@D@2@@std@@I@std@@PEAX@2@@Z
	?_Destroy_if_node@?$_Tree@V?$_Tmap_traits@V?$basic_string@DU?$char_traits@D@std@@V?$allocator@D@2@@std@@PEAVAbstractMetaObjectBase@impl@ros1_class_loader@@U?$less@V?$basic_string@DU?$char_traits@D@std@@V?$allocator@D@2@@std@@@2@V?$allocator@U?$pair@$$CBV?$basic_string@DU?$char_traits@D@std@@V?$allocator@D@2@@std@@PEAVAbstractMetaObjectBase@impl@ros1_class_loader@@@std@@@2@$0A@@std@@@std@@IEAAXPEAU?$_Tree_node@U?$pair@$$CBV?$basic_string@DU?$char_traits@D@std@@V?$allocator@D@2@@std@@PEAVAbstractMetaObjectBase@impl@ros1_class_loader@@@std@@PEAX@2@@Z
	?_Destroy_if_node@?$_Tree@V?$_Tmap_traits@V?$basic_string@DU?$char_traits@D@std@@V?$allocator@D@2@@std@@V12@U?$less@V?$basic_string@DU?$char_traits@D@std@@V?$allocator@D@2@@std@@@2@V?$allocator@U?$pair@$$CBV?$basic_string@DU?$char_traits@D@std@@V?$allocator@D@2@@std@@V12@@std@@@2@$0A@@std@@@std@@IEAAXPEAU?$_Tree_node@U?$pair@$$CBV?$basic_string@DU?$char_traits@D@std@@V?$allocator@D@2@@std@@V12@@std@@PEAX@2@@Z
	?_Destroy_if_node@?$_Tree@V?$_Tmap_traits@V?$basic_string@DU?$char_traits@D@std@@V?$allocator@D@2@@std@@V?$shared_ptr@VMATLABROSMsgInterfaceBase@@@mwboost@@U?$less@V?$basic_string@DU?$char_traits@D@std@@V?$allocator@D@2@@std@@@2@V?$allocator@U?$pair@$$CBV?$basic_string@DU?$char_traits@D@std@@V?$allocator@D@2@@std@@V?$shared_ptr@VMATLABROSMsgInterfaceBase@@@mwboost@@@std@@@2@$0A@@std@@@std@@IEAAXPEAU?$_Tree_node@U?$pair@$$CBV?$basic_string@DU?$char_traits@D@std@@V?$allocator@D@2@@std@@V?$shared_ptr@VMATLABROSMsgInterfaceBase@@@mwboost@@@std@@PEAX@2@@Z
	?_Destroy_if_node@?$_Tree@V?$_Tmap_traits@V?$map@V?$basic_string@DU?$char_traits@D@std@@V?$allocator@D@2@@std@@V12@U?$less@V?$basic_string@DU?$char_traits@D@std@@V?$allocator@D@2@@std@@@2@V?$allocator@U?$pair@$$CBV?$basic_string@DU?$char_traits@D@std@@V?$allocator@D@2@@std@@V12@@std@@@2@@std@@IU?$less@V?$map@V?$basic_string@DU?$char_traits@D@std@@V?$allocator@D@2@@std@@V12@U?$less@V?$basic_string@DU?$char_traits@D@std@@V?$allocator@D@2@@std@@@2@V?$allocator@U?$pair@$$CBV?$basic_string@DU?$char_traits@D@std@@V?$allocator@D@2@@std@@V12@@std@@@2@@std@@@2@V?$allocator@U?$pair@$$CBV?$map@V?$basic_string@DU?$char_traits@D@std@@V?$allocator@D@2@@std@@V12@U?$less@V?$basic_string@DU?$char_traits@D@std@@V?$allocator@D@2@@std@@@2@V?$allocator@U?$pair@$$CBV?$basic_string@DU?$char_traits@D@std@@V?$allocator@D@2@@std@@V12@@std@@@2@@std@@I@std@@@2@$0A@@std@@@std@@IEAAXPEAU?$_Tree_node@U?$pair@$$CBV?$map@V?$basic_string@DU?$char_traits@D@std@@V?$allocator@D@2@@std@@V12@U?$less@V?$basic_string@DU?$char_traits@D@std@@V?$allocator@D@2@@std@@@2@V?$allocator@U?$pair@$$CBV?$basic_string@DU?$char_traits@D@std@@V?$allocator@D@2@@std@@V12@@std@@@2@@std@@I@std@@PEAX@2@@Z
	?_Destroy_if_node@?$_Tree@V?$_Tset_traits@UIndexEntry@rosbag@@U?$less@UIndexEntry@rosbag@@@std@@V?$allocator@UIndexEntry@rosbag@@@4@$00@std@@@std@@IEAAXU_Not_a_node_tag@2@@Z
	?_Eos@?$basic_string@DU?$char_traits@D@std@@V?$allocator@D@2@@std@@QEAAX_K@Z
	?_Equal@?$basic_string@DU?$char_traits@D@std@@V?$allocator@D@2@@std@@QEBA_NAEBV12@@Z
	?_Equal@?$basic_string@DU?$char_traits@D@std@@V?$allocator@D@2@@std@@QEBA_NQEBD@Z
	?_Erase@?$_Tree@V?$_Tmap_traits@V?$basic_string@DU?$char_traits@D@std@@V?$allocator@D@2@@std@@V12@U?$less@V?$basic_string@DU?$char_traits@D@std@@V?$allocator@D@2@@std@@@2@V?$allocator@U?$pair@$$CBV?$basic_string@DU?$char_traits@D@std@@V?$allocator@D@2@@std@@V12@@std@@@2@$0A@@std@@@std@@IEAAXPEAU?$_Tree_node@U?$pair@$$CBV?$basic_string@DU?$char_traits@D@std@@V?$allocator@D@2@@std@@V12@@std@@PEAX@2@@Z
	?_Erase@?$_Tree@V?$_Tset_traits@UIndexEntry@rosbag@@U?$less@UIndexEntry@rosbag@@@std@@V?$allocator@UIndexEntry@rosbag@@@4@$00@std@@@std@@IEAAXPEAU?$_Tree_node@UIndexEntry@rosbag@@PEAX@2@@Z
	?_Extract@?$_Tree_val@U?$_Tree_simple_types@U?$pair@$$CBV?$basic_string@DU?$char_traits@D@std@@V?$allocator@D@2@@std@@V12@@std@@@std@@@std@@QEAAPEAU?$_Tree_node@U?$pair@$$CBV?$basic_string@DU?$char_traits@D@std@@V?$allocator@D@2@@std@@V12@@std@@PEAX@2@V?$_Tree_const_iterator@V?$_Tree_val@U?$_Tree_simple_types@U?$pair@$$CBV?$basic_string@DU?$char_traits@D@std@@V?$allocator@D@2@@std@@V12@@std@@@std@@@std@@@2@@Z
	?_Extract@?$_Tree_val@U?$_Tree_simple_types@UIndexEntry@rosbag@@@std@@@std@@QEAAPEAU?$_Tree_node@UIndexEntry@rosbag@@PEAX@2@V?$_Tree_const_iterator@V?$_Tree_val@U?$_Tree_simple_types@UIndexEntry@rosbag@@@std@@@std@@@2@@Z
	?_Freenode0@?$_Tree_comp_alloc@V?$_Tmap_traits@IIU?$less@I@std@@V?$allocator@U?$pair@$$CBII@std@@@2@$0A@@std@@@std@@QEAAXPEAU?$_Tree_node@U?$pair@$$CBII@std@@PEAX@2@@Z
	?_Freenode0@?$_Tree_comp_alloc@V?$_Tmap_traits@IPEAUConnectionInfo@rosbag@@U?$less@I@std@@V?$allocator@U?$pair@$$CBIPEAUConnectionInfo@rosbag@@@std@@@4@$0A@@std@@@std@@QEAAXPEAU?$_Tree_node@U?$pair@$$CBIPEAUConnectionInfo@rosbag@@@std@@PEAX@2@@Z
	?_Freenode0@?$_Tree_comp_alloc@V?$_Tmap_traits@IV?$multiset@UIndexEntry@rosbag@@U?$less@UIndexEntry@rosbag@@@std@@V?$allocator@UIndexEntry@rosbag@@@4@@std@@U?$less@I@2@V?$allocator@U?$pair@$$CBIV?$multiset@UIndexEntry@rosbag@@U?$less@UIndexEntry@rosbag@@@std@@V?$allocator@UIndexEntry@rosbag@@@4@@std@@@std@@@2@$0A@@std@@@std@@QEAAXPEAU?$_Tree_node@U?$pair@$$CBIV?$multiset@UIndexEntry@rosbag@@U?$less@UIndexEntry@rosbag@@@std@@V?$allocator@UIndexEntry@rosbag@@@4@@std@@@std@@PEAX@2@@Z
	?_Freenode0@?$_Tree_comp_alloc@V?$_Tmap_traits@V?$basic_string@DU?$char_traits@D@std@@V?$allocator@D@2@@std@@IU?$less@V?$basic_string@DU?$char_traits@D@std@@V?$allocator@D@2@@std@@@2@V?$allocator@U?$pair@$$CBV?$basic_string@DU?$char_traits@D@std@@V?$allocator@D@2@@std@@I@std@@@2@$0A@@std@@@std@@QEAAXPEAU?$_Tree_node@U?$pair@$$CBV?$basic_string@DU?$char_traits@D@std@@V?$allocator@D@2@@std@@I@std@@PEAX@2@@Z
	?_Freenode0@?$_Tree_comp_alloc@V?$_Tmap_traits@V?$basic_string@DU?$char_traits@D@std@@V?$allocator@D@2@@std@@PEAVAbstractMetaObjectBase@impl@ros1_class_loader@@U?$less@V?$basic_string@DU?$char_traits@D@std@@V?$allocator@D@2@@std@@@2@V?$allocator@U?$pair@$$CBV?$basic_string@DU?$char_traits@D@std@@V?$allocator@D@2@@std@@PEAVAbstractMetaObjectBase@impl@ros1_class_loader@@@std@@@2@$0A@@std@@@std@@QEAAXPEAU?$_Tree_node@U?$pair@$$CBV?$basic_string@DU?$char_traits@D@std@@V?$allocator@D@2@@std@@PEAVAbstractMetaObjectBase@impl@ros1_class_loader@@@std@@PEAX@2@@Z
	?_Freenode0@?$_Tree_comp_alloc@V?$_Tmap_traits@V?$basic_string@DU?$char_traits@D@std@@V?$allocator@D@2@@std@@V12@U?$less@V?$basic_string@DU?$char_traits@D@std@@V?$allocator@D@2@@std@@@2@V?$allocator@U?$pair@$$CBV?$basic_string@DU?$char_traits@D@std@@V?$allocator@D@2@@std@@V12@@std@@@2@$0A@@std@@@std@@QEAAXPEAU?$_Tree_node@U?$pair@$$CBV?$basic_string@DU?$char_traits@D@std@@V?$allocator@D@2@@std@@V12@@std@@PEAX@2@@Z
	?_Freenode0@?$_Tree_comp_alloc@V?$_Tmap_traits@V?$basic_string@DU?$char_traits@D@std@@V?$allocator@D@2@@std@@V?$shared_ptr@VMATLABROSMsgInterfaceBase@@@mwboost@@U?$less@V?$basic_string@DU?$char_traits@D@std@@V?$allocator@D@2@@std@@@2@V?$allocator@U?$pair@$$CBV?$basic_string@DU?$char_traits@D@std@@V?$allocator@D@2@@std@@V?$shared_ptr@VMATLABROSMsgInterfaceBase@@@mwboost@@@std@@@2@$0A@@std@@@std@@QEAAXPEAU?$_Tree_node@U?$pair@$$CBV?$basic_string@DU?$char_traits@D@std@@V?$allocator@D@2@@std@@V?$shared_ptr@VMATLABROSMsgInterfaceBase@@@mwboost@@@std@@PEAX@2@@Z
	?_Freenode0@?$_Tree_comp_alloc@V?$_Tmap_traits@V?$map@V?$basic_string@DU?$char_traits@D@std@@V?$allocator@D@2@@std@@V12@U?$less@V?$basic_string@DU?$char_traits@D@std@@V?$allocator@D@2@@std@@@2@V?$allocator@U?$pair@$$CBV?$basic_string@DU?$char_traits@D@std@@V?$allocator@D@2@@std@@V12@@std@@@2@@std@@IU?$less@V?$map@V?$basic_string@DU?$char_traits@D@std@@V?$allocator@D@2@@std@@V12@U?$less@V?$basic_string@DU?$char_traits@D@std@@V?$allocator@D@2@@std@@@2@V?$allocator@U?$pair@$$CBV?$basic_string@DU?$char_traits@D@std@@V?$allocator@D@2@@std@@V12@@std@@@2@@std@@@2@V?$allocator@U?$pair@$$CBV?$map@V?$basic_string@DU?$char_traits@D@std@@V?$allocator@D@2@@std@@V12@U?$less@V?$basic_string@DU?$char_traits@D@std@@V?$allocator@D@2@@std@@@2@V?$allocator@U?$pair@$$CBV?$basic_string@DU?$char_traits@D@std@@V?$allocator@D@2@@std@@V12@@std@@@2@@std@@I@std@@@2@$0A@@std@@@std@@QEAAXPEAU?$_Tree_node@U?$pair@$$CBV?$map@V?$basic_string@DU?$char_traits@D@std@@V?$allocator@D@2@@std@@V12@U?$less@V?$basic_string@DU?$char_traits@D@std@@V?$allocator@D@2@@std@@@2@V?$allocator@U?$pair@$$CBV?$basic_string@DU?$char_traits@D@std@@V?$allocator@D@2@@std@@V12@@std@@@2@@std@@I@std@@PEAX@2@@Z
	?_Freenode0@?$_Tree_comp_alloc@V?$_Tset_traits@UIndexEntry@rosbag@@U?$less@UIndexEntry@rosbag@@@std@@V?$allocator@UIndexEntry@rosbag@@@4@$00@std@@@std@@QEAAXPEAU?$_Tree_node@UIndexEntry@rosbag@@PEAX@2@@Z
	?_Get_deleter@?$_Ref_count_resource@PEAVArrayFactoryImpl@impl@data@matlab@@V<lambda_a4c5f97d4391fb4c09103a727c16defd>@@@std@@UEBAPEAXAEBVtype_info@@@Z
	?_Get_deleter@?$_Ref_count_resource@PEAVArrayImpl@impl@data@matlab@@V<lambda_18bde30140702ba20a566c9dc393b8c0>@@@std@@UEBAPEAXAEBVtype_info@@@Z
	?_Get_deleter@?$_Ref_count_resource@PEAVArrayImpl@impl@data@matlab@@V<lambda_49bc69670bef5877f460780ec06c4b58>@@@std@@UEBAPEAXAEBVtype_info@@@Z
	?_Get_deleter@?$_Ref_count_resource@PEAVIteratorImpl@detail@data@matlab@@V<lambda_1cc0c119369d3677f6f4efcaefc6d3c2>@@@std@@UEBAPEAXAEBVtype_info@@@Z
	?_Get_deleter@?$_Ref_count_resource@PEAVNameListImpl@detail@data@matlab@@V<lambda_9f3a4d0362104a3bede0405fafec76e1>@@@std@@UEBAPEAXAEBVtype_info@@@Z
	?_Get_deleter@?$_Ref_count_resource@PEAVReferenceImpl@detail@data@matlab@@V<lambda_2615407b98e1f3a14023b76f0dedc381>@@@std@@UEBAPEAXAEBVtype_info@@@Z
	?_Get_deleter@_Ref_count_base@std@@UEBAPEAXAEBVtype_info@@@Z
	?_Getal@?$_Vector_alloc@U?$_Vec_base_types@U?$Point_@V?$allocator@X@std@@@geometry_msgs@@V?$allocator@U?$Point_@V?$allocator@X@std@@@geometry_msgs@@@std@@@std@@@std@@QEAAAEAV?$allocator@U?$Point_@V?$allocator@X@std@@@geometry_msgs@@@2@XZ
	?_Getal@?$_Vector_alloc@U?$_Vec_base_types@V?$basic_string@DU?$char_traits@D@std@@V?$allocator@D@2@@std@@V?$allocator@V?$basic_string@DU?$char_traits@D@std@@V?$allocator@D@2@@std@@@2@@std@@@std@@QEAAAEAV?$allocator@V?$basic_string@DU?$char_traits@D@std@@V?$allocator@D@2@@std@@@2@XZ
	?_Has_unused_capacity@?$vector@U?$Point_@V?$allocator@X@std@@@geometry_msgs@@V?$allocator@U?$Point_@V?$allocator@X@std@@@geometry_msgs@@@std@@@std@@AEBA_NXZ
	?_Has_unused_capacity@?$vector@V?$basic_string@DU?$char_traits@D@std@@V?$allocator@D@2@@std@@V?$allocator@V?$basic_string@DU?$char_traits@D@std@@V?$allocator@D@2@@std@@@2@@std@@AEBA_NXZ
	?_Lrotate@?$_Tree_val@U?$_Tree_simple_types@U?$pair@$$CBII@std@@@std@@@std@@QEAAXPEAU?$_Tree_node@U?$pair@$$CBII@std@@PEAX@2@@Z
	?_Lrotate@?$_Tree_val@U?$_Tree_simple_types@U?$pair@$$CBIPEAUConnectionInfo@rosbag@@@std@@@std@@@std@@QEAAXPEAU?$_Tree_node@U?$pair@$$CBIPEAUConnectionInfo@rosbag@@@std@@PEAX@2@@Z
	?_Lrotate@?$_Tree_val@U?$_Tree_simple_types@U?$pair@$$CBIV?$multiset@UIndexEntry@rosbag@@U?$less@UIndexEntry@rosbag@@@std@@V?$allocator@UIndexEntry@rosbag@@@4@@std@@@std@@@std@@@std@@QEAAXPEAU?$_Tree_node@U?$pair@$$CBIV?$multiset@UIndexEntry@rosbag@@U?$less@UIndexEntry@rosbag@@@std@@V?$allocator@UIndexEntry@rosbag@@@4@@std@@@std@@PEAX@2@@Z
	?_Lrotate@?$_Tree_val@U?$_Tree_simple_types@U?$pair@$$CBV?$basic_string@DU?$char_traits@D@std@@V?$allocator@D@2@@std@@I@std@@@std@@@std@@QEAAXPEAU?$_Tree_node@U?$pair@$$CBV?$basic_string@DU?$char_traits@D@std@@V?$allocator@D@2@@std@@I@std@@PEAX@2@@Z
	?_Lrotate@?$_Tree_val@U?$_Tree_simple_types@U?$pair@$$CBV?$basic_string@DU?$char_traits@D@std@@V?$allocator@D@2@@std@@PEAVAbstractMetaObjectBase@impl@ros1_class_loader@@@std@@@std@@@std@@QEAAXPEAU?$_Tree_node@U?$pair@$$CBV?$basic_string@DU?$char_traits@D@std@@V?$allocator@D@2@@std@@PEAVAbstractMetaObjectBase@impl@ros1_class_loader@@@std@@PEAX@2@@Z
	?_Lrotate@?$_Tree_val@U?$_Tree_simple_types@U?$pair@$$CBV?$basic_string@DU?$char_traits@D@std@@V?$allocator@D@2@@std@@V12@@std@@@std@@@std@@QEAAXPEAU?$_Tree_node@U?$pair@$$CBV?$basic_string@DU?$char_traits@D@std@@V?$allocator@D@2@@std@@V12@@std@@PEAX@2@@Z
	?_Lrotate@?$_Tree_val@U?$_Tree_simple_types@U?$pair@$$CBV?$basic_string@DU?$char_traits@D@std@@V?$allocator@D@2@@std@@V?$shared_ptr@VMATLABROSMsgInterfaceBase@@@mwboost@@@std@@@std@@@std@@QEAAXPEAU?$_Tree_node@U?$pair@$$CBV?$basic_string@DU?$char_traits@D@std@@V?$allocator@D@2@@std@@V?$shared_ptr@VMATLABROSMsgInterfaceBase@@@mwboost@@@std@@PEAX@2@@Z
	?_Lrotate@?$_Tree_val@U?$_Tree_simple_types@U?$pair@$$CBV?$map@V?$basic_string@DU?$char_traits@D@std@@V?$allocator@D@2@@std@@V12@U?$less@V?$basic_string@DU?$char_traits@D@std@@V?$allocator@D@2@@std@@@2@V?$allocator@U?$pair@$$CBV?$basic_string@DU?$char_traits@D@std@@V?$allocator@D@2@@std@@V12@@std@@@2@@std@@I@std@@@std@@@std@@QEAAXPEAU?$_Tree_node@U?$pair@$$CBV?$map@V?$basic_string@DU?$char_traits@D@std@@V?$allocator@D@2@@std@@V12@U?$less@V?$basic_string@DU?$char_traits@D@std@@V?$allocator@D@2@@std@@@2@V?$allocator@U?$pair@$$CBV?$basic_string@DU?$char_traits@D@std@@V?$allocator@D@2@@std@@V12@@std@@@2@@std@@I@std@@PEAX@2@@Z
	?_Lrotate@?$_Tree_val@U?$_Tree_simple_types@UIndexEntry@rosbag@@@std@@@std@@QEAAXPEAU?$_Tree_node@UIndexEntry@rosbag@@PEAX@2@@Z
	?_Maklocwcs@std@@YAPEA_WPEB_W@Z
	?_Move_from@?$vector@V?$basic_string@DU?$char_traits@D@std@@V?$allocator@D@2@@std@@V?$allocator@V?$basic_string@DU?$char_traits@D@std@@V?$allocator@D@2@@std@@@2@@std@@AEAAX$$QEAV12@U?$integral_constant@_N$00@2@@Z
	?_Mylast@?$_Vector_alloc@U?$_Vec_base_types@V?$basic_string@DU?$char_traits@D@std@@V?$allocator@D@2@@std@@V?$allocator@V?$basic_string@DU?$char_traits@D@std@@V?$allocator@D@2@@std@@@2@@std@@@std@@QEAAAEAPEAV?$basic_string@DU?$char_traits@D@std@@V?$allocator@D@2@@2@XZ
	?_Orphan_range@?$vector@V?$basic_string@DU?$char_traits@D@std@@V?$allocator@D@2@@std@@V?$allocator@V?$basic_string@DU?$char_traits@D@std@@V?$allocator@D@2@@std@@@2@@std@@AEBAXPEAV?$basic_string@DU?$char_traits@D@std@@V?$allocator@D@2@@2@0@Z
	?_Rrotate@?$_Tree_val@U?$_Tree_simple_types@U?$pair@$$CBII@std@@@std@@@std@@QEAAXPEAU?$_Tree_node@U?$pair@$$CBII@std@@PEAX@2@@Z
	?_Rrotate@?$_Tree_val@U?$_Tree_simple_types@U?$pair@$$CBIPEAUConnectionInfo@rosbag@@@std@@@std@@@std@@QEAAXPEAU?$_Tree_node@U?$pair@$$CBIPEAUConnectionInfo@rosbag@@@std@@PEAX@2@@Z
	?_Rrotate@?$_Tree_val@U?$_Tree_simple_types@U?$pair@$$CBIV?$multiset@UIndexEntry@rosbag@@U?$less@UIndexEntry@rosbag@@@std@@V?$allocator@UIndexEntry@rosbag@@@4@@std@@@std@@@std@@@std@@QEAAXPEAU?$_Tree_node@U?$pair@$$CBIV?$multiset@UIndexEntry@rosbag@@U?$less@UIndexEntry@rosbag@@@std@@V?$allocator@UIndexEntry@rosbag@@@4@@std@@@std@@PEAX@2@@Z
	?_Rrotate@?$_Tree_val@U?$_Tree_simple_types@U?$pair@$$CBV?$basic_string@DU?$char_traits@D@std@@V?$allocator@D@2@@std@@I@std@@@std@@@std@@QEAAXPEAU?$_Tree_node@U?$pair@$$CBV?$basic_string@DU?$char_traits@D@std@@V?$allocator@D@2@@std@@I@std@@PEAX@2@@Z
	?_Rrotate@?$_Tree_val@U?$_Tree_simple_types@U?$pair@$$CBV?$basic_string@DU?$char_traits@D@std@@V?$allocator@D@2@@std@@PEAVAbstractMetaObjectBase@impl@ros1_class_loader@@@std@@@std@@@std@@QEAAXPEAU?$_Tree_node@U?$pair@$$CBV?$basic_string@DU?$char_traits@D@std@@V?$allocator@D@2@@std@@PEAVAbstractMetaObjectBase@impl@ros1_class_loader@@@std@@PEAX@2@@Z
	?_Rrotate@?$_Tree_val@U?$_Tree_simple_types@U?$pair@$$CBV?$basic_string@DU?$char_traits@D@std@@V?$allocator@D@2@@std@@V12@@std@@@std@@@std@@QEAAXPEAU?$_Tree_node@U?$pair@$$CBV?$basic_string@DU?$char_traits@D@std@@V?$allocator@D@2@@std@@V12@@std@@PEAX@2@@Z
	?_Rrotate@?$_Tree_val@U?$_Tree_simple_types@U?$pair@$$CBV?$basic_string@DU?$char_traits@D@std@@V?$allocator@D@2@@std@@V?$shared_ptr@VMATLABROSMsgInterfaceBase@@@mwboost@@@std@@@std@@@std@@QEAAXPEAU?$_Tree_node@U?$pair@$$CBV?$basic_string@DU?$char_traits@D@std@@V?$allocator@D@2@@std@@V?$shared_ptr@VMATLABROSMsgInterfaceBase@@@mwboost@@@std@@PEAX@2@@Z
	?_Rrotate@?$_Tree_val@U?$_Tree_simple_types@U?$pair@$$CBV?$map@V?$basic_string@DU?$char_traits@D@std@@V?$allocator@D@2@@std@@V12@U?$less@V?$basic_string@DU?$char_traits@D@std@@V?$allocator@D@2@@std@@@2@V?$allocator@U?$pair@$$CBV?$basic_string@DU?$char_traits@D@std@@V?$allocator@D@2@@std@@V12@@std@@@2@@std@@I@std@@@std@@@std@@QEAAXPEAU?$_Tree_node@U?$pair@$$CBV?$map@V?$basic_string@DU?$char_traits@D@std@@V?$allocator@D@2@@std@@V12@U?$less@V?$basic_string@DU?$char_traits@D@std@@V?$allocator@D@2@@std@@@2@V?$allocator@U?$pair@$$CBV?$basic_string@DU?$char_traits@D@std@@V?$allocator@D@2@@std@@V12@@std@@@2@@std@@I@std@@PEAX@2@@Z
	?_Rrotate@?$_Tree_val@U?$_Tree_simple_types@UIndexEntry@rosbag@@@std@@@std@@QEAAXPEAU?$_Tree_node@UIndexEntry@rosbag@@PEAX@2@@Z
	?_Swap@?$_Ptr_base@VArrayFactoryImpl@impl@data@matlab@@@std@@IEAAXAEAV12@@Z
	?_Swap@?$_Ptr_base@VArrayImpl@impl@data@matlab@@@std@@IEAAXAEAV12@@Z
	?_Swap@?$_Ptr_base@VIteratorImpl@detail@data@matlab@@@std@@IEAAXAEAV12@@Z
	?_Swap@?$_Ptr_base@VPublisher@ros@@@std@@IEAAXAEAV12@@Z
	?_Swap@?$_Ptr_base@VSubscriber@ros@@@std@@IEAAXAEAV12@@Z
	?_Tidy@?$_Tree@V?$_Tmap_traits@V?$basic_string@DU?$char_traits@D@std@@V?$allocator@D@2@@std@@V12@U?$less@V?$basic_string@DU?$char_traits@D@std@@V?$allocator@D@2@@std@@@2@V?$allocator@U?$pair@$$CBV?$basic_string@DU?$char_traits@D@std@@V?$allocator@D@2@@std@@V12@@std@@@2@$0A@@std@@@std@@IEAAXXZ
	?_Tidy@?$_Tree@V?$_Tset_traits@UIndexEntry@rosbag@@U?$less@UIndexEntry@rosbag@@@std@@V?$allocator@UIndexEntry@rosbag@@@4@$00@std@@@std@@IEAAXXZ
	?_Tidy@?$vector@PEAVClassLoader@ros1_class_loader@@V?$allocator@PEAVClassLoader@ros1_class_loader@@@std@@@std@@AEAAXXZ
	?_Tidy@?$vector@U?$Point_@V?$allocator@X@std@@@geometry_msgs@@V?$allocator@U?$Point_@V?$allocator@X@std@@@geometry_msgs@@@std@@@std@@AEAAXXZ
	?_Tidy@?$vector@U?$pair@W4FunctionType@detail@data@matlab@@V?$basic_string@DU?$char_traits@D@std@@V?$allocator@D@2@@std@@@std@@V?$allocator@U?$pair@W4FunctionType@detail@data@matlab@@V?$basic_string@DU?$char_traits@D@std@@V?$allocator@D@2@@std@@@std@@@2@@std@@AEAAXXZ
	?_Tidy@?$vector@V?$basic_string@DU?$char_traits@D@std@@V?$allocator@D@2@@std@@V?$allocator@V?$basic_string@DU?$char_traits@D@std@@V?$allocator@D@2@@std@@@2@@std@@AEAAXXZ
	?_Tidy@?$vector@VArray@data@matlab@@V?$allocator@VArray@data@matlab@@@std@@@std@@AEAAXXZ
	?_Tidy@?$vector@_KV?$allocator@_K@std@@@std@@AEAAXXZ
	?_Tidy_deallocate@?$basic_string@DU?$char_traits@D@std@@V?$allocator@D@2@@std@@QEAAXXZ
	?_Umove@?$vector@U?$Point_@V?$allocator@X@std@@@geometry_msgs@@V?$allocator@U?$Point_@V?$allocator@X@std@@@geometry_msgs@@@std@@@std@@AEAAPEAU?$Point_@V?$allocator@X@std@@@geometry_msgs@@PEAU34@00@Z
	?_Umove@?$vector@V?$basic_string@DU?$char_traits@D@std@@V?$allocator@D@2@@std@@V?$allocator@V?$basic_string@DU?$char_traits@D@std@@V?$allocator@D@2@@std@@@2@@std@@AEAAPEAV?$basic_string@DU?$char_traits@D@std@@V?$allocator@D@2@@2@PEAV32@00@Z
	?_Umove_if_noexcept@?$vector@U?$Point_@V?$allocator@X@std@@@geometry_msgs@@V?$allocator@U?$Point_@V?$allocator@X@std@@@geometry_msgs@@@std@@@std@@AEAAXPEAU?$Point_@V?$allocator@X@std@@@geometry_msgs@@00@Z
	?_Xlen@?$basic_string@DU?$char_traits@D@std@@V?$allocator@D@2@@std@@SAXXZ
	?_Xlength@?$vector@U?$Point_@V?$allocator@X@std@@@geometry_msgs@@V?$allocator@U?$Point_@V?$allocator@X@std@@@geometry_msgs@@@std@@@std@@CAXXZ
	?_Xlength@?$vector@U?$pair@W4FunctionType@detail@data@matlab@@V?$basic_string@DU?$char_traits@D@std@@V?$allocator@D@2@@std@@@std@@V?$allocator@U?$pair@W4FunctionType@detail@data@matlab@@V?$basic_string@DU?$char_traits@D@std@@V?$allocator@D@2@@std@@@std@@@2@@std@@CAXXZ
	?_Xlength@?$vector@V?$basic_string@DU?$char_traits@D@std@@V?$allocator@D@2@@std@@V?$allocator@V?$basic_string@DU?$char_traits@D@std@@V?$allocator@D@2@@std@@@2@@std@@CAXXZ
	?_Xlength@?$vector@VArray@data@matlab@@V?$allocator@VArray@data@matlab@@@std@@@std@@CAXXZ
	?_Xlength@?$vector@_KV?$allocator@_K@std@@@std@@CAXXZ
	?_Xran@?$_String_val@U?$_Simple_types@D@std@@@std@@SAXXZ
	?_internal_get_untyped_deleter@?$shared_ptr@U?$FlightPlan_@V?$allocator@X@std@@@siam_main@@@mwboost@@QEBAPEAXXZ
	?_internal_get_untyped_deleter@?$shared_ptr@V?$SubscriptionCallbackHelperT@AEBV?$shared_ptr@$$CBU?$FlightPlan_@V?$allocator@X@std@@@siam_main@@@mwboost@@X@ros@@@mwboost@@QEBAPEAXXZ
	?_internal_get_untyped_deleter@?$shared_ptr@V?$map@V?$basic_string@DU?$char_traits@D@std@@V?$allocator@D@2@@std@@V12@U?$less@V?$basic_string@DU?$char_traits@D@std@@V?$allocator@D@2@@std@@@2@V?$allocator@U?$pair@$$CBV?$basic_string@DU?$char_traits@D@std@@V?$allocator@D@2@@std@@V12@@std@@@2@@std@@@mwboost@@QEBAPEAXXZ
	?adopt@?$refcount_ptr@Uerror_info_container@exception_detail@mwboost@@@exception_detail@mwboost@@QEAAXPEAUerror_info_container@23@@Z
	?allocate@?$allocator@U?$Point_@V?$allocator@X@std@@@geometry_msgs@@@std@@QEAAPEAU?$Point_@V?$allocator@X@std@@@geometry_msgs@@_K@Z
	?allocate@?$allocator@U?$_Tree_node@U?$pair@$$CBII@std@@PEAX@std@@@std@@QEAAPEAU?$_Tree_node@U?$pair@$$CBII@std@@PEAX@2@_K@Z
	?allocate@?$allocator@U?$_Tree_node@U?$pair@$$CBIPEAUConnectionInfo@rosbag@@@std@@PEAX@std@@@std@@QEAAPEAU?$_Tree_node@U?$pair@$$CBIPEAUConnectionInfo@rosbag@@@std@@PEAX@2@_K@Z
	?allocate@?$allocator@U?$_Tree_node@U?$pair@$$CBIV?$multiset@UIndexEntry@rosbag@@U?$less@UIndexEntry@rosbag@@@std@@V?$allocator@UIndexEntry@rosbag@@@4@@std@@@std@@PEAX@std@@@std@@QEAAPEAU?$_Tree_node@U?$pair@$$CBIV?$multiset@UIndexEntry@rosbag@@U?$less@UIndexEntry@rosbag@@@std@@V?$allocator@UIndexEntry@rosbag@@@4@@std@@@std@@PEAX@2@_K@Z
	?allocate@?$allocator@U?$_Tree_node@U?$pair@$$CBV?$basic_string@DU?$char_traits@D@std@@V?$allocator@D@2@@std@@I@std@@PEAX@std@@@std@@QEAAPEAU?$_Tree_node@U?$pair@$$CBV?$basic_string@DU?$char_traits@D@std@@V?$allocator@D@2@@std@@I@std@@PEAX@2@_K@Z
	?allocate@?$allocator@U?$_Tree_node@U?$pair@$$CBV?$basic_string@DU?$char_traits@D@std@@V?$allocator@D@2@@std@@PEAVAbstractMetaObjectBase@impl@ros1_class_loader@@@std@@PEAX@std@@@std@@QEAAPEAU?$_Tree_node@U?$pair@$$CBV?$basic_string@DU?$char_traits@D@std@@V?$allocator@D@2@@std@@PEAVAbstractMetaObjectBase@impl@ros1_class_loader@@@std@@PEAX@2@_K@Z
	?allocate@?$allocator@U?$_Tree_node@U?$pair@$$CBV?$basic_string@DU?$char_traits@D@std@@V?$allocator@D@2@@std@@V12@@std@@PEAX@std@@@std@@QEAAPEAU?$_Tree_node@U?$pair@$$CBV?$basic_string@DU?$char_traits@D@std@@V?$allocator@D@2@@std@@V12@@std@@PEAX@2@_K@Z
	?allocate@?$allocator@U?$_Tree_node@U?$pair@$$CBV?$basic_string@DU?$char_traits@D@std@@V?$allocator@D@2@@std@@V?$shared_ptr@VMATLABROSMsgInterfaceBase@@@mwboost@@@std@@PEAX@std@@@std@@QEAAPEAU?$_Tree_node@U?$pair@$$CBV?$basic_string@DU?$char_traits@D@std@@V?$allocator@D@2@@std@@V?$shared_ptr@VMATLABROSMsgInterfaceBase@@@mwboost@@@std@@PEAX@2@_K@Z
	?allocate@?$allocator@U?$_Tree_node@U?$pair@$$CBV?$map@V?$basic_string@DU?$char_traits@D@std@@V?$allocator@D@2@@std@@V12@U?$less@V?$basic_string@DU?$char_traits@D@std@@V?$allocator@D@2@@std@@@2@V?$allocator@U?$pair@$$CBV?$basic_string@DU?$char_traits@D@std@@V?$allocator@D@2@@std@@V12@@std@@@2@@std@@I@std@@PEAX@std@@@std@@QEAAPEAU?$_Tree_node@U?$pair@$$CBV?$map@V?$basic_string@DU?$char_traits@D@std@@V?$allocator@D@2@@std@@V12@U?$less@V?$basic_string@DU?$char_traits@D@std@@V?$allocator@D@2@@std@@@2@V?$allocator@U?$pair@$$CBV?$basic_string@DU?$char_traits@D@std@@V?$allocator@D@2@@std@@V12@@std@@@2@@std@@I@std@@PEAX@2@_K@Z
	?allocate@?$allocator@U?$_Tree_node@UIndexEntry@rosbag@@PEAX@std@@@std@@QEAAPEAU?$_Tree_node@UIndexEntry@rosbag@@PEAX@2@_K@Z
	?allocate@?$allocator@U?$pair@W4FunctionType@detail@data@matlab@@V?$basic_string@DU?$char_traits@D@std@@V?$allocator@D@2@@std@@@std@@@std@@QEAAPEAU?$pair@W4FunctionType@detail@data@matlab@@V?$basic_string@DU?$char_traits@D@std@@V?$allocator@D@2@@std@@@2@_K@Z
	?allocate@?$allocator@V?$basic_string@DU?$char_traits@D@std@@V?$allocator@D@2@@std@@@std@@QEAAPEAV?$basic_string@DU?$char_traits@D@std@@V?$allocator@D@2@@2@_K@Z
	?allocate@?$allocator@VArray@data@matlab@@@std@@QEAAPEAVArray@data@matlab@@_K@Z
	?allocate@?$allocator@_K@std@@QEAAPEA_K_K@Z
	?append@?$basic_string@DU?$char_traits@D@std@@V?$allocator@D@2@@std@@QEAAAEAV12@AEBV12@@Z
	?append@?$basic_string@DU?$char_traits@D@std@@V?$allocator@D@2@@std@@QEAAAEAV12@QEBD_K@Z
	?appendAndSendToMATLAB@MATLABSubscriberInterface@@UEAAXPEAXP6A_N0AEBV?$vector@VArray@data@matlab@@V?$allocator@VArray@data@matlab@@@std@@@std@@@ZAEAVArray@data@matlab@@@Z
	?assign@?$basic_string@DU?$char_traits@D@std@@V?$allocator@D@2@@std@@QEAAAEAV12@QEBD_K@Z
	?assign_to_own@?$function0@V?$shared_ptr@U?$FlightPlan_@V?$allocator@X@std@@@siam_main@@@mwboost@@@mwboost@@AEAAXAEBV12@@Z
	?assign_to_own@?$function1@XAEBV?$shared_ptr@$$CBU?$FlightPlan_@V?$allocator@X@std@@@siam_main@@@mwboost@@@mwboost@@AEAAXAEBV12@@Z
	?assign_to_own@?$function1@XAEBVSingleSubscriberPublisher@ros@@@mwboost@@AEAAXAEBV12@@Z
	?assign_to_own@?$function1@XV?$shared_ptr@$$CBU?$FlightPlan_@V?$allocator@X@std@@@siam_main@@@mwboost@@@mwboost@@AEAAXAEBV12@@Z
	?atomic_fetch_add_explicit@std@@YAHPEAU_Atomic_int@1@HW4memory_order@1@@Z
	?begin@?$TypedArray@VStruct@data@matlab@@@data@matlab@@QEBA?AV?$TypedIterator@$$CBVStruct@data@matlab@@@23@XZ
	?begin@?$_Tree@V?$_Tmap_traits@IIU?$less@I@std@@V?$allocator@U?$pair@$$CBII@std@@@2@$0A@@std@@@std@@QEAA?AV?$_Tree_iterator@V?$_Tree_val@U?$_Tree_simple_types@U?$pair@$$CBII@std@@@std@@@std@@@2@XZ
	?begin@?$_Tree@V?$_Tmap_traits@IPEAUConnectionInfo@rosbag@@U?$less@I@std@@V?$allocator@U?$pair@$$CBIPEAUConnectionInfo@rosbag@@@std@@@4@$0A@@std@@@std@@QEAA?AV?$_Tree_iterator@V?$_Tree_val@U?$_Tree_simple_types@U?$pair@$$CBIPEAUConnectionInfo@rosbag@@@std@@@std@@@std@@@2@XZ
	?begin@?$_Tree@V?$_Tmap_traits@IV?$multiset@UIndexEntry@rosbag@@U?$less@UIndexEntry@rosbag@@@std@@V?$allocator@UIndexEntry@rosbag@@@4@@std@@U?$less@I@2@V?$allocator@U?$pair@$$CBIV?$multiset@UIndexEntry@rosbag@@U?$less@UIndexEntry@rosbag@@@std@@V?$allocator@UIndexEntry@rosbag@@@4@@std@@@std@@@2@$0A@@std@@@std@@QEAA?AV?$_Tree_iterator@V?$_Tree_val@U?$_Tree_simple_types@U?$pair@$$CBIV?$multiset@UIndexEntry@rosbag@@U?$less@UIndexEntry@rosbag@@@std@@V?$allocator@UIndexEntry@rosbag@@@4@@std@@@std@@@std@@@std@@@2@XZ
	?begin@?$_Tree@V?$_Tmap_traits@V?$basic_string@DU?$char_traits@D@std@@V?$allocator@D@2@@std@@IU?$less@V?$basic_string@DU?$char_traits@D@std@@V?$allocator@D@2@@std@@@2@V?$allocator@U?$pair@$$CBV?$basic_string@DU?$char_traits@D@std@@V?$allocator@D@2@@std@@I@std@@@2@$0A@@std@@@std@@QEAA?AV?$_Tree_iterator@V?$_Tree_val@U?$_Tree_simple_types@U?$pair@$$CBV?$basic_string@DU?$char_traits@D@std@@V?$allocator@D@2@@std@@I@std@@@std@@@std@@@2@XZ
	?begin@?$_Tree@V?$_Tmap_traits@V?$basic_string@DU?$char_traits@D@std@@V?$allocator@D@2@@std@@PEAVAbstractMetaObjectBase@impl@ros1_class_loader@@U?$less@V?$basic_string@DU?$char_traits@D@std@@V?$allocator@D@2@@std@@@2@V?$allocator@U?$pair@$$CBV?$basic_string@DU?$char_traits@D@std@@V?$allocator@D@2@@std@@PEAVAbstractMetaObjectBase@impl@ros1_class_loader@@@std@@@2@$0A@@std@@@std@@QEAA?AV?$_Tree_iterator@V?$_Tree_val@U?$_Tree_simple_types@U?$pair@$$CBV?$basic_string@DU?$char_traits@D@std@@V?$allocator@D@2@@std@@PEAVAbstractMetaObjectBase@impl@ros1_class_loader@@@std@@@std@@@std@@@2@XZ
	?begin@?$_Tree@V?$_Tmap_traits@V?$basic_string@DU?$char_traits@D@std@@V?$allocator@D@2@@std@@V12@U?$less@V?$basic_string@DU?$char_traits@D@std@@V?$allocator@D@2@@std@@@2@V?$allocator@U?$pair@$$CBV?$basic_string@DU?$char_traits@D@std@@V?$allocator@D@2@@std@@V12@@std@@@2@$0A@@std@@@std@@QEAA?AV?$_Tree_iterator@V?$_Tree_val@U?$_Tree_simple_types@U?$pair@$$CBV?$basic_string@DU?$char_traits@D@std@@V?$allocator@D@2@@std@@V12@@std@@@std@@@std@@@2@XZ
	?begin@?$_Tree@V?$_Tmap_traits@V?$basic_string@DU?$char_traits@D@std@@V?$allocator@D@2@@std@@V?$shared_ptr@VMATLABROSMsgInterfaceBase@@@mwboost@@U?$less@V?$basic_string@DU?$char_traits@D@std@@V?$allocator@D@2@@std@@@2@V?$allocator@U?$pair@$$CBV?$basic_string@DU?$char_traits@D@std@@V?$allocator@D@2@@std@@V?$shared_ptr@VMATLABROSMsgInterfaceBase@@@mwboost@@@std@@@2@$0A@@std@@@std@@QEAA?AV?$_Tree_iterator@V?$_Tree_val@U?$_Tree_simple_types@U?$pair@$$CBV?$basic_string@DU?$char_traits@D@std@@V?$allocator@D@2@@std@@V?$shared_ptr@VMATLABROSMsgInterfaceBase@@@mwboost@@@std@@@std@@@std@@@2@XZ
	?begin@?$_Tree@V?$_Tmap_traits@V?$map@V?$basic_string@DU?$char_traits@D@std@@V?$allocator@D@2@@std@@V12@U?$less@V?$basic_string@DU?$char_traits@D@std@@V?$allocator@D@2@@std@@@2@V?$allocator@U?$pair@$$CBV?$basic_string@DU?$char_traits@D@std@@V?$allocator@D@2@@std@@V12@@std@@@2@@std@@IU?$less@V?$map@V?$basic_string@DU?$char_traits@D@std@@V?$allocator@D@2@@std@@V12@U?$less@V?$basic_string@DU?$char_traits@D@std@@V?$allocator@D@2@@std@@@2@V?$allocator@U?$pair@$$CBV?$basic_string@DU?$char_traits@D@std@@V?$allocator@D@2@@std@@V12@@std@@@2@@std@@@2@V?$allocator@U?$pair@$$CBV?$map@V?$basic_string@DU?$char_traits@D@std@@V?$allocator@D@2@@std@@V12@U?$less@V?$basic_string@DU?$char_traits@D@std@@V?$allocator@D@2@@std@@@2@V?$allocator@U?$pair@$$CBV?$basic_string@DU?$char_traits@D@std@@V?$allocator@D@2@@std@@V12@@std@@@2@@std@@I@std@@@2@$0A@@std@@@std@@QEAA?AV?$_Tree_iterator@V?$_Tree_val@U?$_Tree_simple_types@U?$pair@$$CBV?$map@V?$basic_string@DU?$char_traits@D@std@@V?$allocator@D@2@@std@@V12@U?$less@V?$basic_string@DU?$char_traits@D@std@@V?$allocator@D@2@@std@@@2@V?$allocator@U?$pair@$$CBV?$basic_string@DU?$char_traits@D@std@@V?$allocator@D@2@@std@@V12@@std@@@2@@std@@I@std@@@std@@@std@@@2@XZ
	?begin@?$_Tree@V?$_Tset_traits@UIndexEntry@rosbag@@U?$less@UIndexEntry@rosbag@@@std@@V?$allocator@UIndexEntry@rosbag@@@4@$00@std@@@std@@QEAA?AV?$_Tree_const_iterator@V?$_Tree_val@U?$_Tree_simple_types@UIndexEntry@rosbag@@@std@@@std@@@2@XZ
	?begin@?$basic_string@DU?$char_traits@D@std@@V?$allocator@D@2@@std@@QEBA?AV?$_String_const_iterator@V?$_String_val@U?$_Simple_types@D@std@@@std@@@2@XZ
	?begin@?$vector@U?$Point_@V?$allocator@X@std@@@geometry_msgs@@V?$allocator@U?$Point_@V?$allocator@X@std@@@geometry_msgs@@@std@@@std@@QEAA?AV?$_Vector_iterator@V?$_Vector_val@U?$_Simple_types@U?$Point_@V?$allocator@X@std@@@geometry_msgs@@@std@@@std@@@2@XZ
	?begin@?$vector@U?$Point_@V?$allocator@X@std@@@geometry_msgs@@V?$allocator@U?$Point_@V?$allocator@X@std@@@geometry_msgs@@@std@@@std@@QEBA?AV?$_Vector_const_iterator@V?$_Vector_val@U?$_Simple_types@U?$Point_@V?$allocator@X@std@@@geometry_msgs@@@std@@@std@@@2@XZ
	?c_str@?$basic_string@DU?$char_traits@D@std@@V?$allocator@D@2@@std@@QEBAPEBDXZ
	?call@?$SubscriptionCallbackHelperT@AEBV?$shared_ptr@$$CBU?$FlightPlan_@V?$allocator@X@std@@@siam_main@@@mwboost@@X@ros@@UEAAXAEAUSubscriptionCallbackHelperCallParams@2@@Z
	?callback@?$ROSSubscriberImpl@U?$FlightPlan_@V?$allocator@X@std@@@siam_main@@V?$shared_ptr@$$CBU?$FlightPlan_@V?$allocator@X@std@@@siam_main@@@mwboost@@Vsiam_main_msg_FlightPlan_common@@@@QEAAXAEBV?$shared_ptr@$$CBU?$FlightPlan_@V?$allocator@X@std@@@siam_main@@@mwboost@@@Z
	?capacity@?$vector@U?$Point_@V?$allocator@X@std@@@geometry_msgs@@V?$allocator@U?$Point_@V?$allocator@X@std@@@geometry_msgs@@@std@@@std@@QEBA_KXZ
	?capacity@?$vector@V?$basic_string@DU?$char_traits@D@std@@V?$allocator@D@2@@std@@V?$allocator@V?$basic_string@DU?$char_traits@D@std@@V?$allocator@D@2@@std@@@2@@std@@QEBA_KXZ
	?clear@?$_Tree@V?$_Tmap_traits@V?$basic_string@DU?$char_traits@D@std@@V?$allocator@D@2@@std@@V12@U?$less@V?$basic_string@DU?$char_traits@D@std@@V?$allocator@D@2@@std@@@2@V?$allocator@U?$pair@$$CBV?$basic_string@DU?$char_traits@D@std@@V?$allocator@D@2@@std@@V12@@std@@@2@$0A@@std@@@std@@QEAAXXZ
	?clear@?$_Tree@V?$_Tset_traits@UIndexEntry@rosbag@@U?$less@UIndexEntry@rosbag@@@std@@V?$allocator@UIndexEntry@rosbag@@@4@$00@std@@@std@@QEAAXXZ
	?clear@?$function0@V?$shared_ptr@U?$FlightPlan_@V?$allocator@X@std@@@siam_main@@@mwboost@@@mwboost@@QEAAXXZ
	?clear@?$function0@VSerializedMessage@ros@@@mwboost@@QEAAXXZ
	?clear@?$function1@XAEBV?$shared_ptr@$$CBU?$FlightPlan_@V?$allocator@X@std@@@siam_main@@@mwboost@@@mwboost@@QEAAXXZ
	?clear@?$function1@XAEBVSingleSubscriberPublisher@ros@@@mwboost@@QEAAXXZ
	?clear@?$function1@XV?$shared_ptr@$$CBU?$FlightPlan_@V?$allocator@X@std@@@siam_main@@@mwboost@@@mwboost@@QEAAXXZ
	?clear_waiting_and_try_lock@basic_timed_mutex@detail@mwboost@@QEAAXAEAJ@Z
	?clone@?$clone_impl@Ubad_alloc_@exception_detail@mwboost@@@exception_detail@mwboost@@$0PPPPPPPM@A@EBAPEBVclone_base@23@XZ
	?clone@?$clone_impl@Ubad_alloc_@exception_detail@mwboost@@@exception_detail@mwboost@@EEBAPEBVclone_base@23@XZ
	?clone@?$clone_impl@Ubad_exception_@exception_detail@mwboost@@@exception_detail@mwboost@@$0PPPPPPPM@A@EBAPEBVclone_base@23@XZ
	?clone@?$clone_impl@Ubad_exception_@exception_detail@mwboost@@@exception_detail@mwboost@@EEBAPEBVclone_base@23@XZ
	?clone@?$wrapexcept@Vbad_function_call@mwboost@@@mwboost@@UEBAPEBVclone_base@exception_detail@2@XZ
	?clone@?$wrapexcept@Vlock_error@mwboost@@@mwboost@@UEBAPEBVclone_base@exception_detail@2@XZ
	?clone@?$wrapexcept@Vthread_resource_error@mwboost@@@mwboost@@UEBAPEBVclone_base@exception_detail@2@XZ
	?compare@?$basic_string@DU?$char_traits@D@std@@V?$allocator@D@2@@std@@QEBAHAEBV12@@Z
	?copy_boost_exception@exception_detail@mwboost@@YAXPEAVexception@2@PEBV32@@Z
	?copy_from_struct@siam_main_msg_FlightPlan_common@@UEAAXPEAU?$FlightPlan_@V?$allocator@X@std@@@siam_main@@AEBVStruct@data@matlab@@PEAVMultiLibraryClassLoader@ros1_class_loader@@@Z
	?create@?$MetaObject@Vsiam_main_FlightPlan_message@@VROSMsgElementInterfaceFactory@@@impl@ros1_class_loader@@UEBAPEAVROSMsgElementInterfaceFactory@@XZ
	?create@?$MetaObject@Vsiam_main_msg_FlightPlan_common@@V?$MATLABROSMsgInterface@U?$FlightPlan_@V?$allocator@X@std@@@siam_main@@@@@impl@ros1_class_loader@@UEBAPEAV?$MATLABROSMsgInterface@U?$FlightPlan_@V?$allocator@X@std@@@siam_main@@@@XZ
	?createCharArray@ArrayFactory@data@matlab@@QEAA?AVCharArray@23@AEBV?$basic_string@DU?$char_traits@D@std@@V?$allocator@D@2@@std@@@Z
	?createPublisher@?$ROSPublisherImpl@U?$FlightPlan_@V?$allocator@X@std@@@siam_main@@Vsiam_main_msg_FlightPlan_common@@@@UEAA_JAEBV?$basic_string@DU?$char_traits@D@std@@V?$allocator@D@2@@std@@_NV?$shared_ptr@VNodeHandle@ros@@@3@@Z
	?createPublisher@MATLABPublisherInterface@@UEAA_JAEBV?$basic_string@DU?$char_traits@D@std@@V?$allocator@D@2@@std@@_NV?$shared_ptr@VNodeHandle@ros@@@3@@Z
	?createStructArray@ArrayFactory@data@matlab@@QEAA?AVStructArray@23@V?$vector@_KV?$allocator@_K@std@@@std@@V?$vector@V?$basic_string@DU?$char_traits@D@std@@V?$allocator@D@2@@std@@V?$allocator@V?$basic_string@DU?$char_traits@D@std@@V?$allocator@D@2@@std@@@2@@6@@Z
	?createSubscription@?$ROSSubscriberImpl@U?$FlightPlan_@V?$allocator@X@std@@@siam_main@@V?$shared_ptr@$$CBU?$FlightPlan_@V?$allocator@X@std@@@siam_main@@@mwboost@@Vsiam_main_msg_FlightPlan_common@@@@UEAA_JAEBV?$basic_string@DU?$char_traits@D@std@@V?$allocator@D@2@@std@@V?$shared_ptr@VNodeHandle@ros@@@3@PEAXP6A_N2AEBV?$vector@VArray@data@matlab@@V?$allocator@VArray@data@matlab@@@std@@@3@@ZI@Z
	?createSubscription@MATLABSubscriberInterface@@UEAA_JAEBV?$basic_string@DU?$char_traits@D@std@@V?$allocator@D@2@@std@@V?$shared_ptr@VNodeHandle@ros@@@3@PEAXP6A_N2AEBV?$vector@VArray@data@matlab@@V?$allocator@VArray@data@matlab@@@std@@@3@@ZI@Z
	?create_anonymous_event@win32@detail@mwboost@@YAPEAXW4event_type@123@W4initial_event_state@123@@Z
	?deallocate@?$allocator@U?$Point_@V?$allocator@X@std@@@geometry_msgs@@@std@@QEAAXQEAU?$Point_@V?$allocator@X@std@@@geometry_msgs@@_K@Z
	?deallocate@?$allocator@U?$_Tree_node@U?$pair@$$CBII@std@@PEAX@std@@@std@@QEAAXQEAU?$_Tree_node@U?$pair@$$CBII@std@@PEAX@2@_K@Z
	?deallocate@?$allocator@U?$_Tree_node@U?$pair@$$CBIPEAUConnectionInfo@rosbag@@@std@@PEAX@std@@@std@@QEAAXQEAU?$_Tree_node@U?$pair@$$CBIPEAUConnectionInfo@rosbag@@@std@@PEAX@2@_K@Z
	?deallocate@?$allocator@U?$_Tree_node@U?$pair@$$CBIV?$multiset@UIndexEntry@rosbag@@U?$less@UIndexEntry@rosbag@@@std@@V?$allocator@UIndexEntry@rosbag@@@4@@std@@@std@@PEAX@std@@@std@@QEAAXQEAU?$_Tree_node@U?$pair@$$CBIV?$multiset@UIndexEntry@rosbag@@U?$less@UIndexEntry@rosbag@@@std@@V?$allocator@UIndexEntry@rosbag@@@4@@std@@@std@@PEAX@2@_K@Z
	?deallocate@?$allocator@U?$_Tree_node@U?$pair@$$CBV?$basic_string@DU?$char_traits@D@std@@V?$allocator@D@2@@std@@I@std@@PEAX@std@@@std@@QEAAXQEAU?$_Tree_node@U?$pair@$$CBV?$basic_string@DU?$char_traits@D@std@@V?$allocator@D@2@@std@@I@std@@PEAX@2@_K@Z
	?deallocate@?$allocator@U?$_Tree_node@U?$pair@$$CBV?$basic_string@DU?$char_traits@D@std@@V?$allocator@D@2@@std@@PEAVAbstractMetaObjectBase@impl@ros1_class_loader@@@std@@PEAX@std@@@std@@QEAAXQEAU?$_Tree_node@U?$pair@$$CBV?$basic_string@DU?$char_traits@D@std@@V?$allocator@D@2@@std@@PEAVAbstractMetaObjectBase@impl@ros1_class_loader@@@std@@PEAX@2@_K@Z
	?deallocate@?$allocator@U?$_Tree_node@U?$pair@$$CBV?$basic_string@DU?$char_traits@D@std@@V?$allocator@D@2@@std@@V12@@std@@PEAX@std@@@std@@QEAAXQEAU?$_Tree_node@U?$pair@$$CBV?$basic_string@DU?$char_traits@D@std@@V?$allocator@D@2@@std@@V12@@std@@PEAX@2@_K@Z
	?deallocate@?$allocator@U?$_Tree_node@U?$pair@$$CBV?$basic_string@DU?$char_traits@D@std@@V?$allocator@D@2@@std@@V?$shared_ptr@VMATLABROSMsgInterfaceBase@@@mwboost@@@std@@PEAX@std@@@std@@QEAAXQEAU?$_Tree_node@U?$pair@$$CBV?$basic_string@DU?$char_traits@D@std@@V?$allocator@D@2@@std@@V?$shared_ptr@VMATLABROSMsgInterfaceBase@@@mwboost@@@std@@PEAX@2@_K@Z
	?deallocate@?$allocator@U?$_Tree_node@U?$pair@$$CBV?$map@V?$basic_string@DU?$char_traits@D@std@@V?$allocator@D@2@@std@@V12@U?$less@V?$basic_string@DU?$char_traits@D@std@@V?$allocator@D@2@@std@@@2@V?$allocator@U?$pair@$$CBV?$basic_string@DU?$char_traits@D@std@@V?$allocator@D@2@@std@@V12@@std@@@2@@std@@I@std@@PEAX@std@@@std@@QEAAXQEAU?$_Tree_node@U?$pair@$$CBV?$map@V?$basic_string@DU?$char_traits@D@std@@V?$allocator@D@2@@std@@V12@U?$less@V?$basic_string@DU?$char_traits@D@std@@V?$allocator@D@2@@std@@@2@V?$allocator@U?$pair@$$CBV?$basic_string@DU?$char_traits@D@std@@V?$allocator@D@2@@std@@V12@@std@@@2@@std@@I@std@@PEAX@2@_K@Z
	?deallocate@?$allocator@U?$_Tree_node@UIndexEntry@rosbag@@PEAX@std@@@std@@QEAAXQEAU?$_Tree_node@UIndexEntry@rosbag@@PEAX@2@_K@Z
	?deallocate@?$allocator@V?$basic_string@DU?$char_traits@D@std@@V?$allocator@D@2@@std@@@std@@QEAAXQEAV?$basic_string@DU?$char_traits@D@std@@V?$allocator@D@2@@2@_K@Z
	?default_error_condition@error_category@system@mwboost@@UEBA?AVerror_condition@23@H@Z
	?deserialize@?$SubscriptionCallbackHelperT@AEBV?$shared_ptr@$$CBU?$FlightPlan_@V?$allocator@X@std@@@siam_main@@@mwboost@@X@ros@@UEAA?AV?$shared_ptr@$$CBX@mwboost@@AEBUSubscriptionCallbackHelperDeserializeParams@2@@Z
	?destroy@?$sp_ms_deleter@U?$FlightPlan_@V?$allocator@X@std@@@siam_main@@@detail@mwboost@@AEAAXXZ
	?destroy@?$sp_ms_deleter@V?$SubscriptionCallbackHelperT@AEBV?$shared_ptr@$$CBU?$FlightPlan_@V?$allocator@X@std@@@siam_main@@@mwboost@@X@ros@@@detail@mwboost@@AEAAXXZ
	?destroy@?$sp_ms_deleter@V?$map@V?$basic_string@DU?$char_traits@D@std@@V?$allocator@D@2@@std@@V12@U?$less@V?$basic_string@DU?$char_traits@D@std@@V?$allocator@D@2@@std@@@2@V?$allocator@U?$pair@$$CBV?$basic_string@DU?$char_traits@D@std@@V?$allocator@D@2@@std@@V12@@std@@@2@@std@@@detail@mwboost@@AEAAXXZ
	?destroy@sp_counted_base@detail@mwboost@@UEAAXXZ
	?dispose@?$sp_counted_impl_p@V?$clone_impl@Ubad_alloc_@exception_detail@mwboost@@@exception_detail@mwboost@@@detail@mwboost@@UEAAXXZ
	?dispose@?$sp_counted_impl_p@V?$clone_impl@Ubad_exception_@exception_detail@mwboost@@@exception_detail@mwboost@@@detail@mwboost@@UEAAXXZ
	?dispose@?$sp_counted_impl_pd@PEAEU?$checked_array_deleter@E@mwboost@@@detail@mwboost@@UEAAXXZ
	?dispose@?$sp_counted_impl_pd@PEAU?$FlightPlan_@V?$allocator@X@std@@@siam_main@@V?$sp_ms_deleter@U?$FlightPlan_@V?$allocator@X@std@@@siam_main@@@detail@mwboost@@@detail@mwboost@@UEAAXXZ
	?dispose@?$sp_counted_impl_pd@PEAV?$MATLABROSMsgInterface@U?$Point_@V?$allocator@X@std@@@geometry_msgs@@@@V?$bind_t@XV?$mf1@XVClassLoader@ros1_class_loader@@PEAV?$MATLABROSMsgInterface@U?$Point_@V?$allocator@X@std@@@geometry_msgs@@@@@_mfi@mwboost@@V?$list2@V?$value@PEAVClassLoader@ros1_class_loader@@@_bi@mwboost@@U?$arg@$00@3@@_bi@3@@_bi@mwboost@@@detail@mwboost@@UEAAXXZ
	?dispose@?$sp_counted_impl_pd@PEAV?$SubscriptionCallbackHelperT@AEBV?$shared_ptr@$$CBU?$FlightPlan_@V?$allocator@X@std@@@siam_main@@@mwboost@@X@ros@@V?$sp_ms_deleter@V?$SubscriptionCallbackHelperT@AEBV?$shared_ptr@$$CBU?$FlightPlan_@V?$allocator@X@std@@@siam_main@@@mwboost@@X@ros@@@detail@mwboost@@@detail@mwboost@@UEAAXXZ
	?dispose@?$sp_counted_impl_pd@PEAV?$map@V?$basic_string@DU?$char_traits@D@std@@V?$allocator@D@2@@std@@V12@U?$less@V?$basic_string@DU?$char_traits@D@std@@V?$allocator@D@2@@std@@@2@V?$allocator@U?$pair@$$CBV?$basic_string@DU?$char_traits@D@std@@V?$allocator@D@2@@std@@V12@@std@@@2@@std@@V?$sp_ms_deleter@V?$map@V?$basic_string@DU?$char_traits@D@std@@V?$allocator@D@2@@std@@V12@U?$less@V?$basic_string@DU?$char_traits@D@std@@V?$allocator@D@2@@std@@@2@V?$allocator@U?$pair@$$CBV?$basic_string@DU?$char_traits@D@std@@V?$allocator@D@2@@std@@V12@@std@@@2@@std@@@detail@mwboost@@@detail@mwboost@@UEAAXXZ
	?empty@?$vector@U?$Point_@V?$allocator@X@std@@@geometry_msgs@@V?$allocator@U?$Point_@V?$allocator@X@std@@@geometry_msgs@@@std@@@std@@QEBA_NXZ
	?end@?$TypedArray@VStruct@data@matlab@@@data@matlab@@QEBA?AV?$TypedIterator@$$CBVStruct@data@matlab@@@23@XZ
	?end@?$_Tree@V?$_Tset_traits@UIndexEntry@rosbag@@U?$less@UIndexEntry@rosbag@@@std@@V?$allocator@UIndexEntry@rosbag@@@4@$00@std@@@std@@QEAA?AV?$_Tree_const_iterator@V?$_Tree_val@U?$_Tree_simple_types@UIndexEntry@rosbag@@@std@@@std@@@2@XZ
	?end@?$basic_string@DU?$char_traits@D@std@@V?$allocator@D@2@@std@@QEBA?AV?$_String_const_iterator@V?$_String_val@U?$_Simple_types@D@std@@@std@@@2@XZ
	?end@?$vector@U?$Point_@V?$allocator@X@std@@@geometry_msgs@@V?$allocator@U?$Point_@V?$allocator@X@std@@@geometry_msgs@@@std@@@std@@QEAA?AV?$_Vector_iterator@V?$_Vector_val@U?$_Simple_types@U?$Point_@V?$allocator@X@std@@@geometry_msgs@@@std@@@std@@@2@XZ
	?end@?$vector@U?$Point_@V?$allocator@X@std@@@geometry_msgs@@V?$allocator@U?$Point_@V?$allocator@X@std@@@geometry_msgs@@@std@@@std@@QEBA?AV?$_Vector_const_iterator@V?$_Vector_val@U?$_Simple_types@U?$Point_@V?$allocator@X@std@@@geometry_msgs@@@std@@@std@@@2@XZ
	?equal@stl_type_index@typeindex@mwboost@@QEBA_NAEBV123@@Z
	?equivalent@error_category@system@mwboost@@UEBA_NAEBVerror_code@23@H@Z
	?equivalent@error_category@system@mwboost@@UEBA_NHAEBVerror_condition@23@@Z
	?erase@?$_Tree@V?$_Tmap_traits@V?$basic_string@DU?$char_traits@D@std@@V?$allocator@D@2@@std@@V12@U?$less@V?$basic_string@DU?$char_traits@D@std@@V?$allocator@D@2@@std@@@2@V?$allocator@U?$pair@$$CBV?$basic_string@DU?$char_traits@D@std@@V?$allocator@D@2@@std@@V12@@std@@@2@$0A@@std@@@std@@QEAA?AV?$_Tree_iterator@V?$_Tree_val@U?$_Tree_simple_types@U?$pair@$$CBV?$basic_string@DU?$char_traits@D@std@@V?$allocator@D@2@@std@@V12@@std@@@std@@@std@@@2@V?$_Tree_const_iterator@V?$_Tree_val@U?$_Tree_simple_types@U?$pair@$$CBV?$basic_string@DU?$char_traits@D@std@@V?$allocator@D@2@@std@@V12@@std@@@std@@@std@@@2@0@Z
	?erase@?$_Tree@V?$_Tmap_traits@V?$basic_string@DU?$char_traits@D@std@@V?$allocator@D@2@@std@@V12@U?$less@V?$basic_string@DU?$char_traits@D@std@@V?$allocator@D@2@@std@@@2@V?$allocator@U?$pair@$$CBV?$basic_string@DU?$char_traits@D@std@@V?$allocator@D@2@@std@@V12@@std@@@2@$0A@@std@@@std@@QEAA?AV?$_Tree_iterator@V?$_Tree_val@U?$_Tree_simple_types@U?$pair@$$CBV?$basic_string@DU?$char_traits@D@std@@V?$allocator@D@2@@std@@V12@@std@@@std@@@std@@@2@V?$_Tree_const_iterator@V?$_Tree_val@U?$_Tree_simple_types@U?$pair@$$CBV?$basic_string@DU?$char_traits@D@std@@V?$allocator@D@2@@std@@V12@@std@@@std@@@std@@@2@@Z
	?erase@?$_Tree@V?$_Tset_traits@UIndexEntry@rosbag@@U?$less@UIndexEntry@rosbag@@@std@@V?$allocator@UIndexEntry@rosbag@@@4@$00@std@@@std@@QEAA?AV?$_Tree_const_iterator@V?$_Tree_val@U?$_Tree_simple_types@UIndexEntry@rosbag@@@std@@@std@@@2@V32@0@Z
	?erase@?$_Tree@V?$_Tset_traits@UIndexEntry@rosbag@@U?$less@UIndexEntry@rosbag@@@std@@V?$allocator@UIndexEntry@rosbag@@@4@$00@std@@@std@@QEAA?AV?$_Tree_const_iterator@V?$_Tree_val@U?$_Tree_simple_types@UIndexEntry@rosbag@@@std@@@std@@@2@V32@@Z
	?failed@error_category@system@mwboost@@UEBA_NH@Z
	?find@?$_Tree@V?$_Tmap_traits@V?$basic_string@DU?$char_traits@D@std@@V?$allocator@D@2@@std@@IU?$less@V?$basic_string@DU?$char_traits@D@std@@V?$allocator@D@2@@std@@@2@V?$allocator@U?$pair@$$CBV?$basic_string@DU?$char_traits@D@std@@V?$allocator@D@2@@std@@I@std@@@2@$0A@@std@@@std@@QEAA?AV?$_Tree_iterator@V?$_Tree_val@U?$_Tree_simple_types@U?$pair@$$CBV?$basic_string@DU?$char_traits@D@std@@V?$allocator@D@2@@std@@I@std@@@std@@@std@@@2@AEBV?$basic_string@DU?$char_traits@D@std@@V?$allocator@D@2@@2@@Z
	?find@?$_Tree@V?$_Tmap_traits@V?$basic_string@DU?$char_traits@D@std@@V?$allocator@D@2@@std@@PEAVAbstractMetaObjectBase@impl@ros1_class_loader@@U?$less@V?$basic_string@DU?$char_traits@D@std@@V?$allocator@D@2@@std@@@2@V?$allocator@U?$pair@$$CBV?$basic_string@DU?$char_traits@D@std@@V?$allocator@D@2@@std@@PEAVAbstractMetaObjectBase@impl@ros1_class_loader@@@std@@@2@$0A@@std@@@std@@QEAA?AV?$_Tree_iterator@V?$_Tree_val@U?$_Tree_simple_types@U?$pair@$$CBV?$basic_string@DU?$char_traits@D@std@@V?$allocator@D@2@@std@@PEAVAbstractMetaObjectBase@impl@ros1_class_loader@@@std@@@std@@@std@@@2@AEBV?$basic_string@DU?$char_traits@D@std@@V?$allocator@D@2@@2@@Z
	?find@?$_Tree@V?$_Tmap_traits@V?$basic_string@DU?$char_traits@D@std@@V?$allocator@D@2@@std@@V?$shared_ptr@VMATLABROSMsgInterfaceBase@@@mwboost@@U?$less@V?$basic_string@DU?$char_traits@D@std@@V?$allocator@D@2@@std@@@2@V?$allocator@U?$pair@$$CBV?$basic_string@DU?$char_traits@D@std@@V?$allocator@D@2@@std@@V?$shared_ptr@VMATLABROSMsgInterfaceBase@@@mwboost@@@std@@@2@$0A@@std@@@std@@QEAA?AV?$_Tree_iterator@V?$_Tree_val@U?$_Tree_simple_types@U?$pair@$$CBV?$basic_string@DU?$char_traits@D@std@@V?$allocator@D@2@@std@@V?$shared_ptr@VMATLABROSMsgInterfaceBase@@@mwboost@@@std@@@std@@@std@@@2@AEBV?$basic_string@DU?$char_traits@D@std@@V?$allocator@D@2@@2@@Z
	?find@?$_Tree@V?$_Tmap_traits@V?$map@V?$basic_string@DU?$char_traits@D@std@@V?$allocator@D@2@@std@@V12@U?$less@V?$basic_string@DU?$char_traits@D@std@@V?$allocator@D@2@@std@@@2@V?$allocator@U?$pair@$$CBV?$basic_string@DU?$char_traits@D@std@@V?$allocator@D@2@@std@@V12@@std@@@2@@std@@IU?$less@V?$map@V?$basic_string@DU?$char_traits@D@std@@V?$allocator@D@2@@std@@V12@U?$less@V?$basic_string@DU?$char_traits@D@std@@V?$allocator@D@2@@std@@@2@V?$allocator@U?$pair@$$CBV?$basic_string@DU?$char_traits@D@std@@V?$allocator@D@2@@std@@V12@@std@@@2@@std@@@2@V?$allocator@U?$pair@$$CBV?$map@V?$basic_string@DU?$char_traits@D@std@@V?$allocator@D@2@@std@@V12@U?$less@V?$basic_string@DU?$char_traits@D@std@@V?$allocator@D@2@@std@@@2@V?$allocator@U?$pair@$$CBV?$basic_string@DU?$char_traits@D@std@@V?$allocator@D@2@@std@@V12@@std@@@2@@std@@I@std@@@2@$0A@@std@@@std@@QEAA?AV?$_Tree_iterator@V?$_Tree_val@U?$_Tree_simple_types@U?$pair@$$CBV?$map@V?$basic_string@DU?$char_traits@D@std@@V?$allocator@D@2@@std@@V12@U?$less@V?$basic_string@DU?$char_traits@D@std@@V?$allocator@D@2@@std@@@2@V?$allocator@U?$pair@$$CBV?$basic_string@DU?$char_traits@D@std@@V?$allocator@D@2@@std@@V12@@std@@@2@@std@@I@std@@@std@@@std@@@2@AEBV?$map@V?$basic_string@DU?$char_traits@D@std@@V?$allocator@D@2@@std@@V12@U?$less@V?$basic_string@DU?$char_traits@D@std@@V?$allocator@D@2@@std@@@2@V?$allocator@U?$pair@$$CBV?$basic_string@DU?$char_traits@D@std@@V?$allocator@D@2@@std@@V12@@std@@@2@@2@@Z
	?generateActClientInterface@ROSMsgElementInterfaceFactory@@UEAA?AV?$shared_ptr@VMATLABActClientInterface@@@std@@XZ
	?generateActServerInterface@ROSMsgElementInterfaceFactory@@UEAA?AV?$shared_ptr@VMATLABActServerInterface@@@std@@XZ
	?generatePublisherInterface@siam_main_FlightPlan_message@@UEAA?AV?$shared_ptr@VMATLABPublisherInterface@@@std@@W4ElementType@@@Z
	?generateRosbagWriterInterface@ROSMsgElementInterfaceFactory@@UEAA?AV?$shared_ptr@VMATLABRosbagWriterInterface@@@std@@W4ElementType@@@Z
	?generateRosbagWriterInterface@siam_main_FlightPlan_message@@UEAA?AV?$shared_ptr@VMATLABRosbagWriterInterface@@@std@@W4ElementType@@@Z
	?generateSubscriberInterface@siam_main_FlightPlan_message@@UEAA?AV?$shared_ptr@VMATLABSubscriberInterface@@@std@@W4ElementType@@@Z
	?generateSvcClientInterface@ROSMsgElementInterfaceFactory@@UEAA?AV?$shared_ptr@VMATLABSvcClientInterface@@@std@@XZ
	?generateSvcServerInterface@ROSMsgElementInterfaceFactory@@UEAA?AV?$shared_ptr@VMATLABSvcServerInterface@@@std@@XZ
	?generic_error_category_message@detail@system@mwboost@@YAPEBDHPEAD_K@Z
	?getType@Array@data@matlab@@QEBA?AW4ArrayType@23@XZ
	?getTypeInfo@?$SubscriptionCallbackHelperT@AEBV?$shared_ptr@$$CBU?$FlightPlan_@V?$allocator@X@std@@@siam_main@@@mwboost@@X@ros@@UEAAAEBVtype_info@@XZ
	?get_arr@siam_main_msg_FlightPlan_common@@UEAA?AVArray@data@matlab@@AEAVArrayFactory@34@PEBU?$FlightPlan_@V?$allocator@X@std@@@siam_main@@PEAVMultiLibraryClassLoader@ros1_class_loader@@_K@Z
	?get_deleter@?$sp_counted_impl_p@V?$clone_impl@Ubad_alloc_@exception_detail@mwboost@@@exception_detail@mwboost@@@detail@mwboost@@UEAAPEAXAEBVtype_info@@@Z
	?get_deleter@?$sp_counted_impl_p@V?$clone_impl@Ubad_exception_@exception_detail@mwboost@@@exception_detail@mwboost@@@detail@mwboost@@UEAAPEAXAEBVtype_info@@@Z
	?get_deleter@?$sp_counted_impl_pd@PEAEU?$checked_array_deleter@E@mwboost@@@detail@mwboost@@UEAAPEAXAEBVtype_info@@@Z
	?get_deleter@?$sp_counted_impl_pd@PEAU?$FlightPlan_@V?$allocator@X@std@@@siam_main@@V?$sp_ms_deleter@U?$FlightPlan_@V?$allocator@X@std@@@siam_main@@@detail@mwboost@@@detail@mwboost@@UEAAPEAXAEBVtype_info@@@Z
	?get_deleter@?$sp_counted_impl_pd@PEAV?$MATLABROSMsgInterface@U?$Point_@V?$allocator@X@std@@@geometry_msgs@@@@V?$bind_t@XV?$mf1@XVClassLoader@ros1_class_loader@@PEAV?$MATLABROSMsgInterface@U?$Point_@V?$allocator@X@std@@@geometry_msgs@@@@@_mfi@mwboost@@V?$list2@V?$value@PEAVClassLoader@ros1_class_loader@@@_bi@mwboost@@U?$arg@$00@3@@_bi@3@@_bi@mwboost@@@detail@mwboost@@UEAAPEAXAEBVtype_info@@@Z
	?get_deleter@?$sp_counted_impl_pd@PEAV?$SubscriptionCallbackHelperT@AEBV?$shared_ptr@$$CBU?$FlightPlan_@V?$allocator@X@std@@@siam_main@@@mwboost@@X@ros@@V?$sp_ms_deleter@V?$SubscriptionCallbackHelperT@AEBV?$shared_ptr@$$CBU?$FlightPlan_@V?$allocator@X@std@@@siam_main@@@mwboost@@X@ros@@@detail@mwboost@@@detail@mwboost@@UEAAPEAXAEBVtype_info@@@Z
	?get_deleter@?$sp_counted_impl_pd@PEAV?$map@V?$basic_string@DU?$char_traits@D@std@@V?$allocator@D@2@@std@@V12@U?$less@V?$basic_string@DU?$char_traits@D@std@@V?$allocator@D@2@@std@@@2@V?$allocator@U?$pair@$$CBV?$basic_string@DU?$char_traits@D@std@@V?$allocator@D@2@@std@@V12@@std@@@2@@std@@V?$sp_ms_deleter@V?$map@V?$basic_string@DU?$char_traits@D@std@@V?$allocator@D@2@@std@@V12@U?$less@V?$basic_string@DU?$char_traits@D@std@@V?$allocator@D@2@@std@@@2@V?$allocator@U?$pair@$$CBV?$basic_string@DU?$char_traits@D@std@@V?$allocator@D@2@@std@@V12@@std@@@2@@std@@@detail@mwboost@@@detail@mwboost@@UEAAPEAXAEBVtype_info@@@Z
	?get_event@basic_timed_mutex@detail@mwboost@@AEAAPEAXXZ
	?get_local_deleter@?$sp_counted_impl_p@V?$clone_impl@Ubad_alloc_@exception_detail@mwboost@@@exception_detail@mwboost@@@detail@mwboost@@UEAAPEAXAEBVtype_info@@@Z
	?get_local_deleter@?$sp_counted_impl_p@V?$clone_impl@Ubad_exception_@exception_detail@mwboost@@@exception_detail@mwboost@@@detail@mwboost@@UEAAPEAXAEBVtype_info@@@Z
	?get_local_deleter@?$sp_counted_impl_pd@PEAEU?$checked_array_deleter@E@mwboost@@@detail@mwboost@@UEAAPEAXAEBVtype_info@@@Z
	?get_local_deleter@?$sp_counted_impl_pd@PEAU?$FlightPlan_@V?$allocator@X@std@@@siam_main@@V?$sp_ms_deleter@U?$FlightPlan_@V?$allocator@X@std@@@siam_main@@@detail@mwboost@@@detail@mwboost@@UEAAPEAXAEBVtype_info@@@Z
	?get_local_deleter@?$sp_counted_impl_pd@PEAV?$MATLABROSMsgInterface@U?$Point_@V?$allocator@X@std@@@geometry_msgs@@@@V?$bind_t@XV?$mf1@XVClassLoader@ros1_class_loader@@PEAV?$MATLABROSMsgInterface@U?$Point_@V?$allocator@X@std@@@geometry_msgs@@@@@_mfi@mwboost@@V?$list2@V?$value@PEAVClassLoader@ros1_class_loader@@@_bi@mwboost@@U?$arg@$00@3@@_bi@3@@_bi@mwboost@@@detail@mwboost@@UEAAPEAXAEBVtype_info@@@Z
	?get_local_deleter@?$sp_counted_impl_pd@PEAV?$SubscriptionCallbackHelperT@AEBV?$shared_ptr@$$CBU?$FlightPlan_@V?$allocator@X@std@@@siam_main@@@mwboost@@X@ros@@V?$sp_ms_deleter@V?$SubscriptionCallbackHelperT@AEBV?$shared_ptr@$$CBU?$FlightPlan_@V?$allocator@X@std@@@siam_main@@@mwboost@@X@ros@@@detail@mwboost@@@detail@mwboost@@UEAAPEAXAEBVtype_info@@@Z
	?get_local_deleter@?$sp_counted_impl_pd@PEAV?$map@V?$basic_string@DU?$char_traits@D@std@@V?$allocator@D@2@@std@@V12@U?$less@V?$basic_string@DU?$char_traits@D@std@@V?$allocator@D@2@@std@@@2@V?$allocator@U?$pair@$$CBV?$basic_string@DU?$char_traits@D@std@@V?$allocator@D@2@@std@@V12@@std@@@2@@std@@V?$sp_ms_deleter@V?$map@V?$basic_string@DU?$char_traits@D@std@@V?$allocator@D@2@@std@@V12@U?$less@V?$basic_string@DU?$char_traits@D@std@@V?$allocator@D@2@@std@@@2@V?$allocator@U?$pair@$$CBV?$basic_string@DU?$char_traits@D@std@@V?$allocator@D@2@@std@@V12@@std@@@2@@std@@@detail@mwboost@@@detail@mwboost@@UEAAPEAXAEBVtype_info@@@Z
	?get_untyped_deleter@?$sp_counted_impl_p@V?$clone_impl@Ubad_alloc_@exception_detail@mwboost@@@exception_detail@mwboost@@@detail@mwboost@@UEAAPEAXXZ
	?get_untyped_deleter@?$sp_counted_impl_p@V?$clone_impl@Ubad_exception_@exception_detail@mwboost@@@exception_detail@mwboost@@@detail@mwboost@@UEAAPEAXXZ
	?get_untyped_deleter@?$sp_counted_impl_pd@PEAEU?$checked_array_deleter@E@mwboost@@@detail@mwboost@@UEAAPEAXXZ
	?get_untyped_deleter@?$sp_counted_impl_pd@PEAU?$FlightPlan_@V?$allocator@X@std@@@siam_main@@V?$sp_ms_deleter@U?$FlightPlan_@V?$allocator@X@std@@@siam_main@@@detail@mwboost@@@detail@mwboost@@UEAAPEAXXZ
	?get_untyped_deleter@?$sp_counted_impl_pd@PEAV?$MATLABROSMsgInterface@U?$Point_@V?$allocator@X@std@@@geometry_msgs@@@@V?$bind_t@XV?$mf1@XVClassLoader@ros1_class_loader@@PEAV?$MATLABROSMsgInterface@U?$Point_@V?$allocator@X@std@@@geometry_msgs@@@@@_mfi@mwboost@@V?$list2@V?$value@PEAVClassLoader@ros1_class_loader@@@_bi@mwboost@@U?$arg@$00@3@@_bi@3@@_bi@mwboost@@@detail@mwboost@@UEAAPEAXXZ
	?get_untyped_deleter@?$sp_counted_impl_pd@PEAV?$SubscriptionCallbackHelperT@AEBV?$shared_ptr@$$CBU?$FlightPlan_@V?$allocator@X@std@@@siam_main@@@mwboost@@X@ros@@V?$sp_ms_deleter@V?$SubscriptionCallbackHelperT@AEBV?$shared_ptr@$$CBU?$FlightPlan_@V?$allocator@X@std@@@siam_main@@@mwboost@@X@ros@@@detail@mwboost@@@detail@mwboost@@UEAAPEAXXZ
	?get_untyped_deleter@?$sp_counted_impl_pd@PEAV?$map@V?$basic_string@DU?$char_traits@D@std@@V?$allocator@D@2@@std@@V12@U?$less@V?$basic_string@DU?$char_traits@D@std@@V?$allocator@D@2@@std@@@2@V?$allocator@U?$pair@$$CBV?$basic_string@DU?$char_traits@D@std@@V?$allocator@D@2@@std@@V12@@std@@@2@@std@@V?$sp_ms_deleter@V?$map@V?$basic_string@DU?$char_traits@D@std@@V?$allocator@D@2@@std@@V12@U?$less@V?$basic_string@DU?$char_traits@D@std@@V?$allocator@D@2@@std@@@2@V?$allocator@U?$pair@$$CBV?$basic_string@DU?$char_traits@D@std@@V?$allocator@D@2@@std@@V12@@std@@@2@@std@@@detail@mwboost@@@detail@mwboost@@UEAAPEAXXZ
	?hasHeader@?$SubscriptionCallbackHelperT@AEBV?$shared_ptr@$$CBU?$FlightPlan_@V?$allocator@X@std@@@siam_main@@@mwboost@@X@ros@@UEAA_NXZ
	?has_empty_target@function@detail@mwboost@@YA_NZZ
	?init@?$MessageEvent@$$CBU?$FlightPlan_@V?$allocator@X@std@@@siam_main@@@ros@@QEAAXAEBV?$shared_ptr@$$CBU?$FlightPlan_@V?$allocator@X@std@@@siam_main@@@mwboost@@AEBV?$shared_ptr@V?$map@V?$basic_string@DU?$char_traits@D@std@@V?$allocator@D@2@@std@@V12@U?$less@V?$basic_string@DU?$char_traits@D@std@@V?$allocator@D@2@@std@@@2@V?$allocator@U?$pair@$$CBV?$basic_string@DU?$char_traits@D@std@@V?$allocator@D@2@@std@@V12@@std@@@2@@std@@@4@VTime@2@_NAEBV?$function@$$A6A?AV?$shared_ptr@U?$FlightPlan_@V?$allocator@X@std@@@siam_main@@@mwboost@@XZ@4@@Z
	?insert@?$basic_string@DU?$char_traits@D@std@@V?$allocator@D@2@@std@@QEAAAEAV12@_KAEBV12@@Z
	?insert@?$basic_string@DU?$char_traits@D@std@@V?$allocator@D@2@@std@@QEAAAEAV12@_KQEBD0@Z
	?invoke@?$function_obj_invoker0@U?$DefaultMessageCreator@U?$FlightPlan_@V?$allocator@X@std@@@siam_main@@@ros@@V?$shared_ptr@U?$FlightPlan_@V?$allocator@X@std@@@siam_main@@@mwboost@@@function@detail@mwboost@@SA?AV?$shared_ptr@U?$FlightPlan_@V?$allocator@X@std@@@siam_main@@@4@AEATfunction_buffer@234@@Z
	?invoke@?$function_obj_invoker0@V?$bind_t@VSerializedMessage@ros@@P6A?AV12@AEBU?$FlightPlan_@V?$allocator@X@std@@@siam_main@@@ZV?$list1@V?$reference_wrapper@U?$FlightPlan_@V?$allocator@X@std@@@siam_main@@@mwboost@@@_bi@mwboost@@@_bi@mwboost@@VSerializedMessage@ros@@@function@detail@mwboost@@SA?AVSerializedMessage@ros@@AEATfunction_buffer@234@@Z
	?invoke@?$void_function_obj_invoker1@V?$bind_t@XV?$mf1@XV?$ROSSubscriberImpl@U?$FlightPlan_@V?$allocator@X@std@@@siam_main@@V?$shared_ptr@$$CBU?$FlightPlan_@V?$allocator@X@std@@@siam_main@@@mwboost@@Vsiam_main_msg_FlightPlan_common@@@@AEBV?$shared_ptr@$$CBU?$FlightPlan_@V?$allocator@X@std@@@siam_main@@@mwboost@@@_mfi@mwboost@@V?$list2@V?$value@PEAV?$ROSSubscriberImpl@U?$FlightPlan_@V?$allocator@X@std@@@siam_main@@V?$shared_ptr@$$CBU?$FlightPlan_@V?$allocator@X@std@@@siam_main@@@mwboost@@Vsiam_main_msg_FlightPlan_common@@@@@_bi@mwboost@@U?$arg@$00@3@@_bi@3@@_bi@mwboost@@XAEBV?$shared_ptr@$$CBU?$FlightPlan_@V?$allocator@X@std@@@siam_main@@@3@@function@detail@mwboost@@SAXAEATfunction_buffer@234@AEBV?$shared_ptr@$$CBU?$FlightPlan_@V?$allocator@X@std@@@siam_main@@@4@@Z
	?invoke@?$void_function_obj_invoker1@V?$function@$$A6AXAEBV?$shared_ptr@$$CBU?$FlightPlan_@V?$allocator@X@std@@@siam_main@@@mwboost@@@Z@mwboost@@XV?$shared_ptr@$$CBU?$FlightPlan_@V?$allocator@X@std@@@siam_main@@@2@@function@detail@mwboost@@SAXAEATfunction_buffer@234@V?$shared_ptr@$$CBU?$FlightPlan_@V?$allocator@X@std@@@siam_main@@@4@@Z
	?isAscii7@detail@data@matlab@@YA_NAEBV?$basic_string@DU?$char_traits@D@std@@V?$allocator@D@2@@std@@@Z
	?isConst@?$SubscriptionCallbackHelperT@AEBV?$shared_ptr@$$CBU?$FlightPlan_@V?$allocator@X@std@@@siam_main@@@mwboost@@X@ros@@UEAA_NXZ
	?lock@?$basic_recursive_mutex_impl@Ubasic_timed_mutex@detail@mwboost@@@detail@mwboost@@QEAAXXZ
	?lock@?$unique_lock@Vrecursive_mutex@mwboost@@@mwboost@@QEAAXXZ
	?lock@basic_timed_mutex@detail@mwboost@@QEAAXXZ
	?lower_bound@?$_Tree@V?$_Tmap_traits@IIU?$less@I@std@@V?$allocator@U?$pair@$$CBII@std@@@2@$0A@@std@@@std@@QEAA?AV?$_Tree_iterator@V?$_Tree_val@U?$_Tree_simple_types@U?$pair@$$CBII@std@@@std@@@std@@@2@AEBI@Z
	?lower_bound@?$_Tree@V?$_Tmap_traits@IPEAUConnectionInfo@rosbag@@U?$less@I@std@@V?$allocator@U?$pair@$$CBIPEAUConnectionInfo@rosbag@@@std@@@4@$0A@@std@@@std@@QEAA?AV?$_Tree_iterator@V?$_Tree_val@U?$_Tree_simple_types@U?$pair@$$CBIPEAUConnectionInfo@rosbag@@@std@@@std@@@std@@@2@AEBI@Z
	?lower_bound@?$_Tree@V?$_Tmap_traits@IV?$multiset@UIndexEntry@rosbag@@U?$less@UIndexEntry@rosbag@@@std@@V?$allocator@UIndexEntry@rosbag@@@4@@std@@U?$less@I@2@V?$allocator@U?$pair@$$CBIV?$multiset@UIndexEntry@rosbag@@U?$less@UIndexEntry@rosbag@@@std@@V?$allocator@UIndexEntry@rosbag@@@4@@std@@@std@@@2@$0A@@std@@@std@@QEAA?AV?$_Tree_iterator@V?$_Tree_val@U?$_Tree_simple_types@U?$pair@$$CBIV?$multiset@UIndexEntry@rosbag@@U?$less@UIndexEntry@rosbag@@@std@@V?$allocator@UIndexEntry@rosbag@@@4@@std@@@std@@@std@@@std@@@2@AEBI@Z
	?lower_bound@?$_Tree@V?$_Tmap_traits@V?$basic_string@DU?$char_traits@D@std@@V?$allocator@D@2@@std@@IU?$less@V?$basic_string@DU?$char_traits@D@std@@V?$allocator@D@2@@std@@@2@V?$allocator@U?$pair@$$CBV?$basic_string@DU?$char_traits@D@std@@V?$allocator@D@2@@std@@I@std@@@2@$0A@@std@@@std@@QEAA?AV?$_Tree_iterator@V?$_Tree_val@U?$_Tree_simple_types@U?$pair@$$CBV?$basic_string@DU?$char_traits@D@std@@V?$allocator@D@2@@std@@I@std@@@std@@@std@@@2@AEBV?$basic_string@DU?$char_traits@D@std@@V?$allocator@D@2@@2@@Z
	?lower_bound@?$_Tree@V?$_Tmap_traits@V?$basic_string@DU?$char_traits@D@std@@V?$allocator@D@2@@std@@PEAVAbstractMetaObjectBase@impl@ros1_class_loader@@U?$less@V?$basic_string@DU?$char_traits@D@std@@V?$allocator@D@2@@std@@@2@V?$allocator@U?$pair@$$CBV?$basic_string@DU?$char_traits@D@std@@V?$allocator@D@2@@std@@PEAVAbstractMetaObjectBase@impl@ros1_class_loader@@@std@@@2@$0A@@std@@@std@@QEAA?AV?$_Tree_iterator@V?$_Tree_val@U?$_Tree_simple_types@U?$pair@$$CBV?$basic_string@DU?$char_traits@D@std@@V?$allocator@D@2@@std@@PEAVAbstractMetaObjectBase@impl@ros1_class_loader@@@std@@@std@@@std@@@2@AEBV?$basic_string@DU?$char_traits@D@std@@V?$allocator@D@2@@2@@Z
	?lower_bound@?$_Tree@V?$_Tmap_traits@V?$basic_string@DU?$char_traits@D@std@@V?$allocator@D@2@@std@@V12@U?$less@V?$basic_string@DU?$char_traits@D@std@@V?$allocator@D@2@@std@@@2@V?$allocator@U?$pair@$$CBV?$basic_string@DU?$char_traits@D@std@@V?$allocator@D@2@@std@@V12@@std@@@2@$0A@@std@@@std@@QEAA?AV?$_Tree_iterator@V?$_Tree_val@U?$_Tree_simple_types@U?$pair@$$CBV?$basic_string@DU?$char_traits@D@std@@V?$allocator@D@2@@std@@V12@@std@@@std@@@std@@@2@AEBV?$basic_string@DU?$char_traits@D@std@@V?$allocator@D@2@@2@@Z
	?lower_bound@?$_Tree@V?$_Tmap_traits@V?$basic_string@DU?$char_traits@D@std@@V?$allocator@D@2@@std@@V?$shared_ptr@VMATLABROSMsgInterfaceBase@@@mwboost@@U?$less@V?$basic_string@DU?$char_traits@D@std@@V?$allocator@D@2@@std@@@2@V?$allocator@U?$pair@$$CBV?$basic_string@DU?$char_traits@D@std@@V?$allocator@D@2@@std@@V?$shared_ptr@VMATLABROSMsgInterfaceBase@@@mwboost@@@std@@@2@$0A@@std@@@std@@QEAA?AV?$_Tree_iterator@V?$_Tree_val@U?$_Tree_simple_types@U?$pair@$$CBV?$basic_string@DU?$char_traits@D@std@@V?$allocator@D@2@@std@@V?$shared_ptr@VMATLABROSMsgInterfaceBase@@@mwboost@@@std@@@std@@@std@@@2@AEBV?$basic_string@DU?$char_traits@D@std@@V?$allocator@D@2@@2@@Z
	?lower_bound@?$_Tree@V?$_Tmap_traits@V?$map@V?$basic_string@DU?$char_traits@D@std@@V?$allocator@D@2@@std@@V12@U?$less@V?$basic_string@DU?$char_traits@D@std@@V?$allocator@D@2@@std@@@2@V?$allocator@U?$pair@$$CBV?$basic_string@DU?$char_traits@D@std@@V?$allocator@D@2@@std@@V12@@std@@@2@@std@@IU?$less@V?$map@V?$basic_string@DU?$char_traits@D@std@@V?$allocator@D@2@@std@@V12@U?$less@V?$basic_string@DU?$char_traits@D@std@@V?$allocator@D@2@@std@@@2@V?$allocator@U?$pair@$$CBV?$basic_string@DU?$char_traits@D@std@@V?$allocator@D@2@@std@@V12@@std@@@2@@std@@@2@V?$allocator@U?$pair@$$CBV?$map@V?$basic_string@DU?$char_traits@D@std@@V?$allocator@D@2@@std@@V12@U?$less@V?$basic_string@DU?$char_traits@D@std@@V?$allocator@D@2@@std@@@2@V?$allocator@U?$pair@$$CBV?$basic_string@DU?$char_traits@D@std@@V?$allocator@D@2@@std@@V12@@std@@@2@@std@@I@std@@@2@$0A@@std@@@std@@QEAA?AV?$_Tree_iterator@V?$_Tree_val@U?$_Tree_simple_types@U?$pair@$$CBV?$map@V?$basic_string@DU?$char_traits@D@std@@V?$allocator@D@2@@std@@V12@U?$less@V?$basic_string@DU?$char_traits@D@std@@V?$allocator@D@2@@std@@@2@V?$allocator@U?$pair@$$CBV?$basic_string@DU?$char_traits@D@std@@V?$allocator@D@2@@std@@V12@@std@@@2@@std@@I@std@@@std@@@std@@@2@AEBV?$map@V?$basic_string@DU?$char_traits@D@std@@V?$allocator@D@2@@std@@V12@U?$less@V?$basic_string@DU?$char_traits@D@std@@V?$allocator@D@2@@std@@@2@V?$allocator@U?$pair@$$CBV?$basic_string@DU?$char_traits@D@std@@V?$allocator@D@2@@std@@V12@@std@@@2@@2@@Z
	?manage@?$functor_manager@U?$DefaultMessageCreator@U?$FlightPlan_@V?$allocator@X@std@@@siam_main@@@ros@@@function@detail@mwboost@@SAXAEBTfunction_buffer@234@AEAT5234@W4functor_manager_operation_type@234@@Z
	?manage@?$functor_manager@V?$bind_t@VSerializedMessage@ros@@P6A?AV12@AEBU?$FlightPlan_@V?$allocator@X@std@@@siam_main@@@ZV?$list1@V?$reference_wrapper@U?$FlightPlan_@V?$allocator@X@std@@@siam_main@@@mwboost@@@_bi@mwboost@@@_bi@mwboost@@@function@detail@mwboost@@SAXAEBTfunction_buffer@234@AEAT5234@W4functor_manager_operation_type@234@@Z
	?manage@?$functor_manager@V?$bind_t@XV?$mf1@XV?$ROSSubscriberImpl@U?$FlightPlan_@V?$allocator@X@std@@@siam_main@@V?$shared_ptr@$$CBU?$FlightPlan_@V?$allocator@X@std@@@siam_main@@@mwboost@@Vsiam_main_msg_FlightPlan_common@@@@AEBV?$shared_ptr@$$CBU?$FlightPlan_@V?$allocator@X@std@@@siam_main@@@mwboost@@@_mfi@mwboost@@V?$list2@V?$value@PEAV?$ROSSubscriberImpl@U?$FlightPlan_@V?$allocator@X@std@@@siam_main@@V?$shared_ptr@$$CBU?$FlightPlan_@V?$allocator@X@std@@@siam_main@@@mwboost@@Vsiam_main_msg_FlightPlan_common@@@@@_bi@mwboost@@U?$arg@$00@3@@_bi@3@@_bi@mwboost@@@function@detail@mwboost@@SAXAEBTfunction_buffer@234@AEAT5234@W4functor_manager_operation_type@234@@Z
	?manage@?$functor_manager@V?$function@$$A6AXAEBV?$shared_ptr@$$CBU?$FlightPlan_@V?$allocator@X@std@@@siam_main@@@mwboost@@@Z@mwboost@@@function@detail@mwboost@@SAXAEBTfunction_buffer@234@AEAT5234@W4functor_manager_operation_type@234@@Z
	?manage_small@?$functor_manager_common@U?$DefaultMessageCreator@U?$FlightPlan_@V?$allocator@X@std@@@siam_main@@@ros@@@function@detail@mwboost@@SAXAEBTfunction_buffer@234@AEAT5234@W4functor_manager_operation_type@234@@Z
	?manage_small@?$functor_manager_common@V?$bind_t@VSerializedMessage@ros@@P6A?AV12@AEBU?$FlightPlan_@V?$allocator@X@std@@@siam_main@@@ZV?$list1@V?$reference_wrapper@U?$FlightPlan_@V?$allocator@X@std@@@siam_main@@@mwboost@@@_bi@mwboost@@@_bi@mwboost@@@function@detail@mwboost@@SAXAEBTfunction_buffer@234@AEAT5234@W4functor_manager_operation_type@234@@Z
	?manage_small@?$functor_manager_common@V?$bind_t@XV?$mf1@XV?$ROSSubscriberImpl@U?$FlightPlan_@V?$allocator@X@std@@@siam_main@@V?$shared_ptr@$$CBU?$FlightPlan_@V?$allocator@X@std@@@siam_main@@@mwboost@@Vsiam_main_msg_FlightPlan_common@@@@AEBV?$shared_ptr@$$CBU?$FlightPlan_@V?$allocator@X@std@@@siam_main@@@mwboost@@@_mfi@mwboost@@V?$list2@V?$value@PEAV?$ROSSubscriberImpl@U?$FlightPlan_@V?$allocator@X@std@@@siam_main@@V?$shared_ptr@$$CBU?$FlightPlan_@V?$allocator@X@std@@@siam_main@@@mwboost@@Vsiam_main_msg_FlightPlan_common@@@@@_bi@mwboost@@U?$arg@$00@3@@_bi@3@@_bi@mwboost@@@function@detail@mwboost@@SAXAEBTfunction_buffer@234@AEAT5234@W4functor_manager_operation_type@234@@Z
	?manager@?$functor_manager@V?$function@$$A6AXAEBV?$shared_ptr@$$CBU?$FlightPlan_@V?$allocator@X@std@@@siam_main@@@mwboost@@@Z@mwboost@@@function@detail@mwboost@@CAXAEBTfunction_buffer@234@AEAT5234@W4functor_manager_operation_type@234@U?$integral_constant@_N$0A@@4@@Z
	?mark_waiting_and_try_lock@basic_timed_mutex@detail@mwboost@@QEAAXAEAJ@Z
	?max_size@?$basic_string@DU?$char_traits@D@std@@V?$allocator@D@2@@std@@QEBA_KXZ
	?max_size@?$vector@U?$Point_@V?$allocator@X@std@@@geometry_msgs@@V?$allocator@U?$Point_@V?$allocator@X@std@@@geometry_msgs@@@std@@@std@@QEBA_KXZ
	?message@generic_error_category@detail@system@mwboost@@UEBA?AV?$basic_string@DU?$char_traits@D@std@@V?$allocator@D@2@@std@@H@Z
	?message@generic_error_category@detail@system@mwboost@@UEBAPEBDHPEAD_K@Z
	?move_assign@?$function0@V?$shared_ptr@U?$FlightPlan_@V?$allocator@X@std@@@siam_main@@@mwboost@@@mwboost@@AEAAXAEAV12@@Z
	?move_assign@?$function1@XAEBVSingleSubscriberPublisher@ros@@@mwboost@@AEAAXAEAV12@@Z
	?name@generic_error_category@detail@system@mwboost@@UEBAPEBDXZ
	?operator_fn@?$sp_ms_deleter@U?$FlightPlan_@V?$allocator@X@std@@@siam_main@@@detail@mwboost@@SAXPEAU?$FlightPlan_@V?$allocator@X@std@@@siam_main@@@Z
	?operator_fn@?$sp_ms_deleter@V?$SubscriptionCallbackHelperT@AEBV?$shared_ptr@$$CBU?$FlightPlan_@V?$allocator@X@std@@@siam_main@@@mwboost@@X@ros@@@detail@mwboost@@SAXPEAV?$SubscriptionCallbackHelperT@AEBV?$shared_ptr@$$CBU?$FlightPlan_@V?$allocator@X@std@@@siam_main@@@mwboost@@X@ros@@@Z
	?operator_fn@?$sp_ms_deleter@V?$map@V?$basic_string@DU?$char_traits@D@std@@V?$allocator@D@2@@std@@V12@U?$less@V?$basic_string@DU?$char_traits@D@std@@V?$allocator@D@2@@std@@@2@V?$allocator@U?$pair@$$CBV?$basic_string@DU?$char_traits@D@std@@V?$allocator@D@2@@std@@V12@@std@@@2@@std@@@detail@mwboost@@SAXPEAV?$map@V?$basic_string@DU?$char_traits@D@std@@V?$allocator@D@2@@std@@V12@U?$less@V?$basic_string@DU?$char_traits@D@std@@V?$allocator@D@2@@std@@@2@V?$allocator@U?$pair@$$CBV?$basic_string@DU?$char_traits@D@std@@V?$allocator@D@2@@std@@V12@@std@@@2@@std@@@Z
	?publish@?$ROSPublisherImpl@U?$FlightPlan_@V?$allocator@X@std@@@siam_main@@Vsiam_main_msg_FlightPlan_common@@@@UEAA_NAEBVStructArray@data@matlab@@@Z
	?publish@MATLABPublisherInterface@@UEAA_NAEBVStructArray@data@matlab@@@Z
	?push_back@?$basic_string@DU?$char_traits@D@std@@V?$allocator@D@2@@std@@QEAAXD@Z
	?rbegin@?$vector@U?$pair@W4FunctionType@detail@data@matlab@@V?$basic_string@DU?$char_traits@D@std@@V?$allocator@D@2@@std@@@std@@V?$allocator@U?$pair@W4FunctionType@detail@data@matlab@@V?$basic_string@DU?$char_traits@D@std@@V?$allocator@D@2@@std@@@std@@@2@@std@@QEBA?AV?$reverse_iterator@V?$_Vector_const_iterator@V?$_Vector_val@U?$_Simple_types@U?$pair@W4FunctionType@detail@data@matlab@@V?$basic_string@DU?$char_traits@D@std@@V?$allocator@D@2@@std@@@std@@@std@@@std@@@std@@@2@XZ
	?release@?$refcount_ptr@Uerror_info_container@exception_detail@mwboost@@@exception_detail@mwboost@@AEAAXXZ
	?release@sp_counted_base@detail@mwboost@@QEAAXXZ
	?rend@?$vector@U?$pair@W4FunctionType@detail@data@matlab@@V?$basic_string@DU?$char_traits@D@std@@V?$allocator@D@2@@std@@@std@@V?$allocator@U?$pair@W4FunctionType@detail@data@matlab@@V?$basic_string@DU?$char_traits@D@std@@V?$allocator@D@2@@std@@@std@@@2@@std@@QEBA?AV?$reverse_iterator@V?$_Vector_const_iterator@V?$_Vector_val@U?$_Simple_types@U?$pair@W4FunctionType@detail@data@matlab@@V?$basic_string@DU?$char_traits@D@std@@V?$allocator@D@2@@std@@@std@@@std@@@std@@@std@@@2@XZ
	?reserve@?$basic_string@DU?$char_traits@D@std@@V?$allocator@D@2@@std@@QEAAX_K@Z
	?rethrow@?$clone_impl@Ubad_alloc_@exception_detail@mwboost@@@exception_detail@mwboost@@$0PPPPPPPM@A@EBAXXZ
	?rethrow@?$clone_impl@Ubad_alloc_@exception_detail@mwboost@@@exception_detail@mwboost@@EEBAXXZ
	?rethrow@?$clone_impl@Ubad_exception_@exception_detail@mwboost@@@exception_detail@mwboost@@$0PPPPPPPM@A@EBAXXZ
	?rethrow@?$clone_impl@Ubad_exception_@exception_detail@mwboost@@@exception_detail@mwboost@@EEBAXXZ
	?rethrow@?$wrapexcept@Vbad_function_call@mwboost@@@mwboost@@UEBAXXZ
	?rethrow@?$wrapexcept@Vlock_error@mwboost@@@mwboost@@UEBAXXZ
	?rethrow@?$wrapexcept@Vthread_resource_error@mwboost@@@mwboost@@UEBAXXZ
	?serializedLength@?$VectorSerializer@U?$Point_@V?$allocator@X@std@@@geometry_msgs@@V?$allocator@U?$Point_@V?$allocator@X@std@@@geometry_msgs@@@std@@X@serialization@ros@@SAIAEBV?$vector@U?$Point_@V?$allocator@X@std@@@geometry_msgs@@V?$allocator@U?$Point_@V?$allocator@X@std@@@geometry_msgs@@@std@@@std@@@Z
	?setCommonObjMap@?$ROSBagWriterImpl@U?$FlightPlan_@V?$allocator@X@std@@@siam_main@@Vsiam_main_msg_FlightPlan_common@@@@UEAAXPEAV?$map@V?$basic_string@DU?$char_traits@D@std@@V?$allocator@D@2@@std@@V?$shared_ptr@VMATLABROSMsgInterfaceBase@@@mwboost@@U?$less@V?$basic_string@DU?$char_traits@D@std@@V?$allocator@D@2@@std@@@2@V?$allocator@U?$pair@$$CBV?$basic_string@DU?$char_traits@D@std@@V?$allocator@D@2@@std@@V?$shared_ptr@VMATLABROSMsgInterfaceBase@@@mwboost@@@std@@@2@@std@@@Z
	?setCommonObjMap@?$ROSPublisherImpl@U?$FlightPlan_@V?$allocator@X@std@@@siam_main@@Vsiam_main_msg_FlightPlan_common@@@@UEAAXPEAV?$map@V?$basic_string@DU?$char_traits@D@std@@V?$allocator@D@2@@std@@V?$shared_ptr@VMATLABROSMsgInterfaceBase@@@mwboost@@U?$less@V?$basic_string@DU?$char_traits@D@std@@V?$allocator@D@2@@std@@@2@V?$allocator@U?$pair@$$CBV?$basic_string@DU?$char_traits@D@std@@V?$allocator@D@2@@std@@V?$shared_ptr@VMATLABROSMsgInterfaceBase@@@mwboost@@@std@@@2@@std@@@Z
	?setCommonObjMap@?$ROSSubscriberImpl@U?$FlightPlan_@V?$allocator@X@std@@@siam_main@@V?$shared_ptr@$$CBU?$FlightPlan_@V?$allocator@X@std@@@siam_main@@@mwboost@@Vsiam_main_msg_FlightPlan_common@@@@UEAAXPEAV?$map@V?$basic_string@DU?$char_traits@D@std@@V?$allocator@D@2@@std@@V?$shared_ptr@VMATLABROSMsgInterfaceBase@@@mwboost@@U?$less@V?$basic_string@DU?$char_traits@D@std@@V?$allocator@D@2@@std@@@2@V?$allocator@U?$pair@$$CBV?$basic_string@DU?$char_traits@D@std@@V?$allocator@D@2@@std@@V?$shared_ptr@VMATLABROSMsgInterfaceBase@@@mwboost@@@std@@@2@@std@@@Z
	?setCommonObjMap@MATLABPublisherInterface@@UEAAXPEAV?$map@V?$basic_string@DU?$char_traits@D@std@@V?$allocator@D@2@@std@@V?$shared_ptr@VMATLABROSMsgInterfaceBase@@@mwboost@@U?$less@V?$basic_string@DU?$char_traits@D@std@@V?$allocator@D@2@@std@@@2@V?$allocator@U?$pair@$$CBV?$basic_string@DU?$char_traits@D@std@@V?$allocator@D@2@@std@@V?$shared_ptr@VMATLABROSMsgInterfaceBase@@@mwboost@@@std@@@2@@std@@@Z
	?setCommonObjMap@MATLABRosbagWriterInterface@@UEAAXPEAV?$map@V?$basic_string@DU?$char_traits@D@std@@V?$allocator@D@2@@std@@V?$shared_ptr@VMATLABROSMsgInterfaceBase@@@mwboost@@U?$less@V?$basic_string@DU?$char_traits@D@std@@V?$allocator@D@2@@std@@@2@V?$allocator@U?$pair@$$CBV?$basic_string@DU?$char_traits@D@std@@V?$allocator@D@2@@std@@V?$shared_ptr@VMATLABROSMsgInterfaceBase@@@mwboost@@@std@@@2@@std@@@Z
	?setCommonObjMap@MATLABSubscriberInterface@@UEAAXPEAV?$map@V?$basic_string@DU?$char_traits@D@std@@V?$allocator@D@2@@std@@V?$shared_ptr@VMATLABROSMsgInterfaceBase@@@mwboost@@U?$less@V?$basic_string@DU?$char_traits@D@std@@V?$allocator@D@2@@std@@@2@V?$allocator@U?$pair@$$CBV?$basic_string@DU?$char_traits@D@std@@V?$allocator@D@2@@std@@V?$shared_ptr@VMATLABROSMsgInterfaceBase@@@mwboost@@@std@@@2@@std@@@Z
	?size@?$vector@U?$Point_@V?$allocator@X@std@@@geometry_msgs@@V?$allocator@U?$Point_@V?$allocator@X@std@@@geometry_msgs@@@std@@@std@@QEBA_KXZ
	?sp_enable_shared_from_this@detail@mwboost@@YAXZZ
	?swap@?$function0@V?$shared_ptr@U?$FlightPlan_@V?$allocator@X@std@@@siam_main@@@mwboost@@@mwboost@@QEAAXAEAV12@@Z
	?swap@?$function1@XAEBVSingleSubscriberPublisher@ros@@@mwboost@@QEAAXAEAV12@@Z
	?swap@?$shared_array@E@mwboost@@QEAAXAEAV12@@Z
	?swap@?$shared_ptr@$$CBU?$FlightPlan_@V?$allocator@X@std@@@siam_main@@@mwboost@@QEAAXAEAV12@@Z
	?swap@?$shared_ptr@$$CBX@mwboost@@QEAAXAEAV12@@Z
	?swap@?$shared_ptr@U?$FlightPlan_@V?$allocator@X@std@@@siam_main@@@mwboost@@QEAAXAEAV12@@Z
	?swap@?$shared_ptr@V?$map@V?$basic_string@DU?$char_traits@D@std@@V?$allocator@D@2@@std@@V12@U?$less@V?$basic_string@DU?$char_traits@D@std@@V?$allocator@D@2@@std@@@2@V?$allocator@U?$pair@$$CBV?$basic_string@DU?$char_traits@D@std@@V?$allocator@D@2@@std@@V12@@std@@@2@@std@@@mwboost@@QEAAXAEAV12@@Z
	?swap@?$shared_ptr@VMATLABROSMsgInterfaceBase@@@mwboost@@QEAAXAEAV12@@Z
	?swap@?$shared_ptr@VSubscriptionCallbackHelper@ros@@@mwboost@@QEAAXAEAV12@@Z
	?throwIfError@detail@data@matlab@@YAXHAEBV?$basic_string@DU?$char_traits@D@std@@V?$allocator@D@2@@std@@@Z
	?throw_exception_assert_compatibility@mwboost@@YAXAEBVexception@std@@@Z
	?toAscii@CharArray@data@matlab@@QEBA?AV?$basic_string@DU?$char_traits@D@std@@V?$allocator@D@2@@std@@XZ
	?toAsciiHelper@detail@data@matlab@@YA?AV?$basic_string@DU?$char_traits@D@std@@V?$allocator@D@2@@std@@PEB_S_K@Z
	?try_lock@basic_timed_mutex@detail@mwboost@@QEAA_NXZ
	?unlock@?$basic_recursive_mutex_impl@Ubasic_timed_mutex@detail@mwboost@@@detail@mwboost@@QEAAXXZ
	?unlock@basic_timed_mutex@detail@mwboost@@QEAAXXZ
	?weak_release@sp_counted_base@detail@mwboost@@QEAAXXZ
	?what@?$ArrayException@VException@matlab@@$00@detail@data@matlab@@UEBAPEBDXZ
	?what@?$ArrayException@VException@matlab@@$00@detail@data@matlab@@W7EBAPEBDXZ
	?what@?$ArrayException@VException@matlab@@$01@detail@data@matlab@@UEBAPEBDXZ
	?what@?$ArrayException@VException@matlab@@$01@detail@data@matlab@@W7EBAPEBDXZ
	?what@?$ArrayException@VException@matlab@@$02@detail@data@matlab@@UEBAPEBDXZ
	?what@?$ArrayException@VException@matlab@@$02@detail@data@matlab@@W7EBAPEBDXZ
	?what@?$ArrayException@VException@matlab@@$04@detail@data@matlab@@UEBAPEBDXZ
	?what@?$ArrayException@VException@matlab@@$04@detail@data@matlab@@W7EBAPEBDXZ
	?what@?$ArrayException@VException@matlab@@$05@detail@data@matlab@@UEBAPEBDXZ
	?what@?$ArrayException@VException@matlab@@$05@detail@data@matlab@@W7EBAPEBDXZ
	?what@?$ArrayException@VException@matlab@@$06@detail@data@matlab@@UEBAPEBDXZ
	?what@?$ArrayException@VException@matlab@@$06@detail@data@matlab@@W7EBAPEBDXZ
	?what@?$ArrayException@VException@matlab@@$07@detail@data@matlab@@UEBAPEBDXZ
	?what@?$ArrayException@VException@matlab@@$07@detail@data@matlab@@W7EBAPEBDXZ
	?what@?$ArrayException@VException@matlab@@$08@detail@data@matlab@@UEBAPEBDXZ
	?what@?$ArrayException@VException@matlab@@$08@detail@data@matlab@@W7EBAPEBDXZ
	?what@?$ArrayException@VException@matlab@@$09@detail@data@matlab@@UEBAPEBDXZ
	?what@?$ArrayException@VException@matlab@@$09@detail@data@matlab@@W7EBAPEBDXZ
	?what@?$ArrayException@VException@matlab@@$0BA@@detail@data@matlab@@UEBAPEBDXZ
	?what@?$ArrayException@VException@matlab@@$0BA@@detail@data@matlab@@W7EBAPEBDXZ
	?what@?$ArrayException@VException@matlab@@$0BC@@detail@data@matlab@@UEBAPEBDXZ
	?what@?$ArrayException@VException@matlab@@$0BC@@detail@data@matlab@@W7EBAPEBDXZ
	?what@?$ArrayException@VException@matlab@@$0BD@@detail@data@matlab@@UEBAPEBDXZ
	?what@?$ArrayException@VException@matlab@@$0BD@@detail@data@matlab@@W7EBAPEBDXZ
	?what@?$ArrayException@VException@matlab@@$0BE@@detail@data@matlab@@UEBAPEBDXZ
	?what@?$ArrayException@VException@matlab@@$0BE@@detail@data@matlab@@W7EBAPEBDXZ
	?what@?$ArrayException@VException@matlab@@$0BF@@detail@data@matlab@@UEBAPEBDXZ
	?what@?$ArrayException@VException@matlab@@$0BF@@detail@data@matlab@@W7EBAPEBDXZ
	?what@?$ArrayException@VException@matlab@@$0BG@@detail@data@matlab@@UEBAPEBDXZ
	?what@?$ArrayException@VException@matlab@@$0BG@@detail@data@matlab@@W7EBAPEBDXZ
	?what@?$ArrayException@VException@matlab@@$0BH@@detail@data@matlab@@UEBAPEBDXZ
	?what@?$ArrayException@VException@matlab@@$0BH@@detail@data@matlab@@W7EBAPEBDXZ
	?what@?$ArrayException@VException@matlab@@$0BI@@detail@data@matlab@@UEBAPEBDXZ
	?what@?$ArrayException@VException@matlab@@$0BI@@detail@data@matlab@@W7EBAPEBDXZ
	?what@?$ArrayException@VException@matlab@@$0BJ@@detail@data@matlab@@UEBAPEBDXZ
	?what@?$ArrayException@VException@matlab@@$0BJ@@detail@data@matlab@@W7EBAPEBDXZ
	?what@?$ArrayException@VException@matlab@@$0BK@@detail@data@matlab@@UEBAPEBDXZ
	?what@?$ArrayException@VException@matlab@@$0BK@@detail@data@matlab@@W7EBAPEBDXZ
	?what@?$ArrayException@VException@matlab@@$0BL@@detail@data@matlab@@UEBAPEBDXZ
	?what@?$ArrayException@VException@matlab@@$0BL@@detail@data@matlab@@W7EBAPEBDXZ
	?what@?$ArrayException@VException@matlab@@$0BM@@detail@data@matlab@@UEBAPEBDXZ
	?what@?$ArrayException@VException@matlab@@$0BM@@detail@data@matlab@@W7EBAPEBDXZ
	?what@?$ArrayException@VException@matlab@@$0BN@@detail@data@matlab@@UEBAPEBDXZ
	?what@?$ArrayException@VException@matlab@@$0BN@@detail@data@matlab@@W7EBAPEBDXZ
	?what@?$ArrayException@VException@matlab@@$0N@@detail@data@matlab@@UEBAPEBDXZ
	?what@?$ArrayException@VException@matlab@@$0N@@detail@data@matlab@@W7EBAPEBDXZ
	?what@?$ArrayException@VException@matlab@@$0O@@detail@data@matlab@@UEBAPEBDXZ
	?what@?$ArrayException@VException@matlab@@$0O@@detail@data@matlab@@W7EBAPEBDXZ
	?what@?$ArrayException@VException@matlab@@$0P@@detail@data@matlab@@UEBAPEBDXZ
	?what@?$ArrayException@VException@matlab@@$0P@@detail@data@matlab@@W7EBAPEBDXZ
	?what@exception@std@@UEBAPEBDXZ
	?what@system_error@system@mwboost@@UEBAPEBDXZ
	?write@?$ROSBagWriterImpl@U?$FlightPlan_@V?$allocator@X@std@@@siam_main@@Vsiam_main_msg_FlightPlan_common@@@@UEAA_NAEBV?$basic_string@DU?$char_traits@D@std@@V?$allocator@D@2@@std@@AEBI1AEBVStructArray@data@matlab@@@Z
	?write@MATLABRosbagWriterInterface@@UEAA_NAEBV?$basic_string@DU?$char_traits@D@std@@V?$allocator@D@2@@std@@AEBI1AEBVStructArray@data@matlab@@@Z
